
ctarget:     file format elf64-x86-64


Disassembly of section .init:

0000000000400bb0 <_init>:
  400bb0:	48 83 ec 08          	sub    $0x8,%rsp
  400bb4:	48 8b 05 3d 34 20 00 	mov    0x20343d(%rip),%rax        # 603ff8 <__gmon_start__>
  400bbb:	48 85 c0             	test   %rax,%rax
  400bbe:	74 02                	je     400bc2 <_init+0x12>
  400bc0:	ff d0                	callq  *%rax
  400bc2:	48 83 c4 08          	add    $0x8,%rsp
  400bc6:	c3                   	retq   

Disassembly of section .plt:

0000000000400bd0 <.plt>:
  400bd0:	ff 35 32 34 20 00    	pushq  0x203432(%rip)        # 604008 <_GLOBAL_OFFSET_TABLE_+0x8>
  400bd6:	ff 25 34 34 20 00    	jmpq   *0x203434(%rip)        # 604010 <_GLOBAL_OFFSET_TABLE_+0x10>
  400bdc:	0f 1f 40 00          	nopl   0x0(%rax)

0000000000400be0 <strcasecmp@plt>:
  400be0:	ff 25 32 34 20 00    	jmpq   *0x203432(%rip)        # 604018 <strcasecmp@GLIBC_2.2.5>
  400be6:	68 00 00 00 00       	pushq  $0x0
  400beb:	e9 e0 ff ff ff       	jmpq   400bd0 <.plt>

0000000000400bf0 <__errno_location@plt>:
  400bf0:	ff 25 2a 34 20 00    	jmpq   *0x20342a(%rip)        # 604020 <__errno_location@GLIBC_2.2.5>
  400bf6:	68 01 00 00 00       	pushq  $0x1
  400bfb:	e9 d0 ff ff ff       	jmpq   400bd0 <.plt>

0000000000400c00 <srandom@plt>:
  400c00:	ff 25 22 34 20 00    	jmpq   *0x203422(%rip)        # 604028 <srandom@GLIBC_2.2.5>
  400c06:	68 02 00 00 00       	pushq  $0x2
  400c0b:	e9 c0 ff ff ff       	jmpq   400bd0 <.plt>

0000000000400c10 <strncmp@plt>:
  400c10:	ff 25 1a 34 20 00    	jmpq   *0x20341a(%rip)        # 604030 <strncmp@GLIBC_2.2.5>
  400c16:	68 03 00 00 00       	pushq  $0x3
  400c1b:	e9 b0 ff ff ff       	jmpq   400bd0 <.plt>

0000000000400c20 <strcpy@plt>:
  400c20:	ff 25 12 34 20 00    	jmpq   *0x203412(%rip)        # 604038 <strcpy@GLIBC_2.2.5>
  400c26:	68 04 00 00 00       	pushq  $0x4
  400c2b:	e9 a0 ff ff ff       	jmpq   400bd0 <.plt>

0000000000400c30 <puts@plt>:
  400c30:	ff 25 0a 34 20 00    	jmpq   *0x20340a(%rip)        # 604040 <puts@GLIBC_2.2.5>
  400c36:	68 05 00 00 00       	pushq  $0x5
  400c3b:	e9 90 ff ff ff       	jmpq   400bd0 <.plt>

0000000000400c40 <write@plt>:
  400c40:	ff 25 02 34 20 00    	jmpq   *0x203402(%rip)        # 604048 <write@GLIBC_2.2.5>
  400c46:	68 06 00 00 00       	pushq  $0x6
  400c4b:	e9 80 ff ff ff       	jmpq   400bd0 <.plt>

0000000000400c50 <mmap@plt>:
  400c50:	ff 25 fa 33 20 00    	jmpq   *0x2033fa(%rip)        # 604050 <mmap@GLIBC_2.2.5>
  400c56:	68 07 00 00 00       	pushq  $0x7
  400c5b:	e9 70 ff ff ff       	jmpq   400bd0 <.plt>

0000000000400c60 <printf@plt>:
  400c60:	ff 25 f2 33 20 00    	jmpq   *0x2033f2(%rip)        # 604058 <printf@GLIBC_2.2.5>
  400c66:	68 08 00 00 00       	pushq  $0x8
  400c6b:	e9 60 ff ff ff       	jmpq   400bd0 <.plt>

0000000000400c70 <memset@plt>:
  400c70:	ff 25 ea 33 20 00    	jmpq   *0x2033ea(%rip)        # 604060 <memset@GLIBC_2.2.5>
  400c76:	68 09 00 00 00       	pushq  $0x9
  400c7b:	e9 50 ff ff ff       	jmpq   400bd0 <.plt>

0000000000400c80 <alarm@plt>:
  400c80:	ff 25 e2 33 20 00    	jmpq   *0x2033e2(%rip)        # 604068 <alarm@GLIBC_2.2.5>
  400c86:	68 0a 00 00 00       	pushq  $0xa
  400c8b:	e9 40 ff ff ff       	jmpq   400bd0 <.plt>

0000000000400c90 <close@plt>:
  400c90:	ff 25 da 33 20 00    	jmpq   *0x2033da(%rip)        # 604070 <close@GLIBC_2.2.5>
  400c96:	68 0b 00 00 00       	pushq  $0xb
  400c9b:	e9 30 ff ff ff       	jmpq   400bd0 <.plt>

0000000000400ca0 <read@plt>:
  400ca0:	ff 25 d2 33 20 00    	jmpq   *0x2033d2(%rip)        # 604078 <read@GLIBC_2.2.5>
  400ca6:	68 0c 00 00 00       	pushq  $0xc
  400cab:	e9 20 ff ff ff       	jmpq   400bd0 <.plt>

0000000000400cb0 <signal@plt>:
  400cb0:	ff 25 ca 33 20 00    	jmpq   *0x2033ca(%rip)        # 604080 <signal@GLIBC_2.2.5>
  400cb6:	68 0d 00 00 00       	pushq  $0xd
  400cbb:	e9 10 ff ff ff       	jmpq   400bd0 <.plt>

0000000000400cc0 <gethostbyname@plt>:
  400cc0:	ff 25 c2 33 20 00    	jmpq   *0x2033c2(%rip)        # 604088 <gethostbyname@GLIBC_2.2.5>
  400cc6:	68 0e 00 00 00       	pushq  $0xe
  400ccb:	e9 00 ff ff ff       	jmpq   400bd0 <.plt>

0000000000400cd0 <fprintf@plt>:
  400cd0:	ff 25 ba 33 20 00    	jmpq   *0x2033ba(%rip)        # 604090 <fprintf@GLIBC_2.2.5>
  400cd6:	68 0f 00 00 00       	pushq  $0xf
  400cdb:	e9 f0 fe ff ff       	jmpq   400bd0 <.plt>

0000000000400ce0 <strtol@plt>:
  400ce0:	ff 25 b2 33 20 00    	jmpq   *0x2033b2(%rip)        # 604098 <strtol@GLIBC_2.2.5>
  400ce6:	68 10 00 00 00       	pushq  $0x10
  400ceb:	e9 e0 fe ff ff       	jmpq   400bd0 <.plt>

0000000000400cf0 <memcpy@plt>:
  400cf0:	ff 25 aa 33 20 00    	jmpq   *0x2033aa(%rip)        # 6040a0 <memcpy@GLIBC_2.14>
  400cf6:	68 11 00 00 00       	pushq  $0x11
  400cfb:	e9 d0 fe ff ff       	jmpq   400bd0 <.plt>

0000000000400d00 <time@plt>:
  400d00:	ff 25 a2 33 20 00    	jmpq   *0x2033a2(%rip)        # 6040a8 <time@GLIBC_2.2.5>
  400d06:	68 12 00 00 00       	pushq  $0x12
  400d0b:	e9 c0 fe ff ff       	jmpq   400bd0 <.plt>

0000000000400d10 <random@plt>:
  400d10:	ff 25 9a 33 20 00    	jmpq   *0x20339a(%rip)        # 6040b0 <random@GLIBC_2.2.5>
  400d16:	68 13 00 00 00       	pushq  $0x13
  400d1b:	e9 b0 fe ff ff       	jmpq   400bd0 <.plt>

0000000000400d20 <_IO_getc@plt>:
  400d20:	ff 25 92 33 20 00    	jmpq   *0x203392(%rip)        # 6040b8 <_IO_getc@GLIBC_2.2.5>
  400d26:	68 14 00 00 00       	pushq  $0x14
  400d2b:	e9 a0 fe ff ff       	jmpq   400bd0 <.plt>

0000000000400d30 <__isoc99_sscanf@plt>:
  400d30:	ff 25 8a 33 20 00    	jmpq   *0x20338a(%rip)        # 6040c0 <__isoc99_sscanf@GLIBC_2.7>
  400d36:	68 15 00 00 00       	pushq  $0x15
  400d3b:	e9 90 fe ff ff       	jmpq   400bd0 <.plt>

0000000000400d40 <munmap@plt>:
  400d40:	ff 25 82 33 20 00    	jmpq   *0x203382(%rip)        # 6040c8 <munmap@GLIBC_2.2.5>
  400d46:	68 16 00 00 00       	pushq  $0x16
  400d4b:	e9 80 fe ff ff       	jmpq   400bd0 <.plt>

0000000000400d50 <bcopy@plt>:
  400d50:	ff 25 7a 33 20 00    	jmpq   *0x20337a(%rip)        # 6040d0 <bcopy@GLIBC_2.2.5>
  400d56:	68 17 00 00 00       	pushq  $0x17
  400d5b:	e9 70 fe ff ff       	jmpq   400bd0 <.plt>

0000000000400d60 <fopen@plt>:
  400d60:	ff 25 72 33 20 00    	jmpq   *0x203372(%rip)        # 6040d8 <fopen@GLIBC_2.2.5>
  400d66:	68 18 00 00 00       	pushq  $0x18
  400d6b:	e9 60 fe ff ff       	jmpq   400bd0 <.plt>

0000000000400d70 <getopt@plt>:
  400d70:	ff 25 6a 33 20 00    	jmpq   *0x20336a(%rip)        # 6040e0 <getopt@GLIBC_2.2.5>
  400d76:	68 19 00 00 00       	pushq  $0x19
  400d7b:	e9 50 fe ff ff       	jmpq   400bd0 <.plt>

0000000000400d80 <strtoul@plt>:
  400d80:	ff 25 62 33 20 00    	jmpq   *0x203362(%rip)        # 6040e8 <strtoul@GLIBC_2.2.5>
  400d86:	68 1a 00 00 00       	pushq  $0x1a
  400d8b:	e9 40 fe ff ff       	jmpq   400bd0 <.plt>

0000000000400d90 <gethostname@plt>:
  400d90:	ff 25 5a 33 20 00    	jmpq   *0x20335a(%rip)        # 6040f0 <gethostname@GLIBC_2.2.5>
  400d96:	68 1b 00 00 00       	pushq  $0x1b
  400d9b:	e9 30 fe ff ff       	jmpq   400bd0 <.plt>

0000000000400da0 <sprintf@plt>:
  400da0:	ff 25 52 33 20 00    	jmpq   *0x203352(%rip)        # 6040f8 <sprintf@GLIBC_2.2.5>
  400da6:	68 1c 00 00 00       	pushq  $0x1c
  400dab:	e9 20 fe ff ff       	jmpq   400bd0 <.plt>

0000000000400db0 <exit@plt>:
  400db0:	ff 25 4a 33 20 00    	jmpq   *0x20334a(%rip)        # 604100 <exit@GLIBC_2.2.5>
  400db6:	68 1d 00 00 00       	pushq  $0x1d
  400dbb:	e9 10 fe ff ff       	jmpq   400bd0 <.plt>

0000000000400dc0 <connect@plt>:
  400dc0:	ff 25 42 33 20 00    	jmpq   *0x203342(%rip)        # 604108 <connect@GLIBC_2.2.5>
  400dc6:	68 1e 00 00 00       	pushq  $0x1e
  400dcb:	e9 00 fe ff ff       	jmpq   400bd0 <.plt>

0000000000400dd0 <socket@plt>:
  400dd0:	ff 25 3a 33 20 00    	jmpq   *0x20333a(%rip)        # 604110 <socket@GLIBC_2.2.5>
  400dd6:	68 1f 00 00 00       	pushq  $0x1f
  400ddb:	e9 f0 fd ff ff       	jmpq   400bd0 <.plt>

Disassembly of section .text:

0000000000400de0 <_start>:
  400de0:	31 ed                	xor    %ebp,%ebp
  400de2:	49 89 d1             	mov    %rdx,%r9
  400de5:	5e                   	pop    %rsi
  400de6:	48 89 e2             	mov    %rsp,%rdx
  400de9:	48 83 e4 f0          	and    $0xfffffffffffffff0,%rsp
  400ded:	50                   	push   %rax
  400dee:	54                   	push   %rsp
  400def:	49 c7 c0 80 2c 40 00 	mov    $0x402c80,%r8
  400df6:	48 c7 c1 10 2c 40 00 	mov    $0x402c10,%rcx
  400dfd:	48 c7 c7 8d 10 40 00 	mov    $0x40108d,%rdi
  400e04:	ff 15 e6 31 20 00    	callq  *0x2031e6(%rip)        # 603ff0 <__libc_start_main@GLIBC_2.2.5>
  400e0a:	f4                   	hlt    
  400e0b:	0f 1f 44 00 00       	nopl   0x0(%rax,%rax,1)

0000000000400e10 <deregister_tm_clones>:
  400e10:	b8 97 44 60 00       	mov    $0x604497,%eax
  400e15:	55                   	push   %rbp
  400e16:	48 2d 90 44 60 00    	sub    $0x604490,%rax
  400e1c:	48 83 f8 0e          	cmp    $0xe,%rax
  400e20:	48 89 e5             	mov    %rsp,%rbp
  400e23:	76 1b                	jbe    400e40 <deregister_tm_clones+0x30>
  400e25:	b8 00 00 00 00       	mov    $0x0,%eax
  400e2a:	48 85 c0             	test   %rax,%rax
  400e2d:	74 11                	je     400e40 <deregister_tm_clones+0x30>
  400e2f:	5d                   	pop    %rbp
  400e30:	bf 90 44 60 00       	mov    $0x604490,%edi
  400e35:	ff e0                	jmpq   *%rax
  400e37:	66 0f 1f 84 00 00 00 	nopw   0x0(%rax,%rax,1)
  400e3e:	00 00 
  400e40:	5d                   	pop    %rbp
  400e41:	c3                   	retq   
  400e42:	0f 1f 40 00          	nopl   0x0(%rax)
  400e46:	66 2e 0f 1f 84 00 00 	nopw   %cs:0x0(%rax,%rax,1)
  400e4d:	00 00 00 

0000000000400e50 <register_tm_clones>:
  400e50:	be 90 44 60 00       	mov    $0x604490,%esi
  400e55:	55                   	push   %rbp
  400e56:	48 81 ee 90 44 60 00 	sub    $0x604490,%rsi
  400e5d:	48 c1 fe 03          	sar    $0x3,%rsi
  400e61:	48 89 e5             	mov    %rsp,%rbp
  400e64:	48 89 f0             	mov    %rsi,%rax
  400e67:	48 c1 e8 3f          	shr    $0x3f,%rax
  400e6b:	48 01 c6             	add    %rax,%rsi
  400e6e:	48 d1 fe             	sar    %rsi
  400e71:	74 15                	je     400e88 <register_tm_clones+0x38>
  400e73:	b8 00 00 00 00       	mov    $0x0,%eax
  400e78:	48 85 c0             	test   %rax,%rax
  400e7b:	74 0b                	je     400e88 <register_tm_clones+0x38>
  400e7d:	5d                   	pop    %rbp
  400e7e:	bf 90 44 60 00       	mov    $0x604490,%edi
  400e83:	ff e0                	jmpq   *%rax
  400e85:	0f 1f 00             	nopl   (%rax)
  400e88:	5d                   	pop    %rbp
  400e89:	c3                   	retq   
  400e8a:	66 0f 1f 44 00 00    	nopw   0x0(%rax,%rax,1)

0000000000400e90 <__do_global_dtors_aux>:
  400e90:	80 3d 31 36 20 00 00 	cmpb   $0x0,0x203631(%rip)        # 6044c8 <completed.6972>
  400e97:	75 11                	jne    400eaa <__do_global_dtors_aux+0x1a>
  400e99:	55                   	push   %rbp
  400e9a:	48 89 e5             	mov    %rsp,%rbp
  400e9d:	e8 6e ff ff ff       	callq  400e10 <deregister_tm_clones>
  400ea2:	5d                   	pop    %rbp
  400ea3:	c6 05 1e 36 20 00 01 	movb   $0x1,0x20361e(%rip)        # 6044c8 <completed.6972>
  400eaa:	f3 c3                	repz retq 
  400eac:	0f 1f 40 00          	nopl   0x0(%rax)

0000000000400eb0 <frame_dummy>:
  400eb0:	bf 18 3e 60 00       	mov    $0x603e18,%edi
  400eb5:	48 83 3f 00          	cmpq   $0x0,(%rdi)
  400eb9:	75 05                	jne    400ec0 <frame_dummy+0x10>
  400ebb:	eb 93                	jmp    400e50 <register_tm_clones>
  400ebd:	0f 1f 00             	nopl   (%rax)
  400ec0:	b8 00 00 00 00       	mov    $0x0,%eax
  400ec5:	48 85 c0             	test   %rax,%rax
  400ec8:	74 f1                	je     400ebb <frame_dummy+0xb>
  400eca:	55                   	push   %rbp
  400ecb:	48 89 e5             	mov    %rsp,%rbp
  400ece:	ff d0                	callq  *%rax
  400ed0:	5d                   	pop    %rbp
  400ed1:	e9 7a ff ff ff       	jmpq   400e50 <register_tm_clones>

0000000000400ed6 <usage>:
  400ed6:	48 83 ec 08          	sub    $0x8,%rsp
  400eda:	48 89 fe             	mov    %rdi,%rsi
  400edd:	83 3d 24 36 20 00 00 	cmpl   $0x0,0x203624(%rip)        # 604508 <is_checker>
  400ee4:	74 4b                	je     400f31 <usage+0x5b>
  400ee6:	48 8d 3d ab 1d 00 00 	lea    0x1dab(%rip),%rdi        # 402c98 <_IO_stdin_used+0x8>
  400eed:	b8 00 00 00 00       	mov    $0x0,%eax
  400ef2:	e8 69 fd ff ff       	callq  400c60 <printf@plt>
  400ef7:	48 8d 3d d2 1d 00 00 	lea    0x1dd2(%rip),%rdi        # 402cd0 <_IO_stdin_used+0x40>
  400efe:	e8 2d fd ff ff       	callq  400c30 <puts@plt>
  400f03:	48 8d 3d fe 1e 00 00 	lea    0x1efe(%rip),%rdi        # 402e08 <_IO_stdin_used+0x178>
  400f0a:	e8 21 fd ff ff       	callq  400c30 <puts@plt>
  400f0f:	48 8d 3d e2 1d 00 00 	lea    0x1de2(%rip),%rdi        # 402cf8 <_IO_stdin_used+0x68>
  400f16:	e8 15 fd ff ff       	callq  400c30 <puts@plt>
  400f1b:	48 8d 3d 00 1f 00 00 	lea    0x1f00(%rip),%rdi        # 402e22 <_IO_stdin_used+0x192>
  400f22:	e8 09 fd ff ff       	callq  400c30 <puts@plt>
  400f27:	bf 00 00 00 00       	mov    $0x0,%edi
  400f2c:	e8 7f fe ff ff       	callq  400db0 <exit@plt>
  400f31:	48 8d 3d 06 1f 00 00 	lea    0x1f06(%rip),%rdi        # 402e3e <_IO_stdin_used+0x1ae>
  400f38:	b8 00 00 00 00       	mov    $0x0,%eax
  400f3d:	e8 1e fd ff ff       	callq  400c60 <printf@plt>
  400f42:	48 8d 3d d7 1d 00 00 	lea    0x1dd7(%rip),%rdi        # 402d20 <_IO_stdin_used+0x90>
  400f49:	e8 e2 fc ff ff       	callq  400c30 <puts@plt>
  400f4e:	48 8d 3d f3 1d 00 00 	lea    0x1df3(%rip),%rdi        # 402d48 <_IO_stdin_used+0xb8>
  400f55:	e8 d6 fc ff ff       	callq  400c30 <puts@plt>
  400f5a:	48 8d 3d fb 1e 00 00 	lea    0x1efb(%rip),%rdi        # 402e5c <_IO_stdin_used+0x1cc>
  400f61:	e8 ca fc ff ff       	callq  400c30 <puts@plt>
  400f66:	eb bf                	jmp    400f27 <usage+0x51>

0000000000400f68 <initialize_target>:
  400f68:	55                   	push   %rbp
  400f69:	53                   	push   %rbx
  400f6a:	48 81 ec 08 21 00 00 	sub    $0x2108,%rsp
  400f71:	89 f5                	mov    %esi,%ebp
  400f73:	89 3d 7f 35 20 00    	mov    %edi,0x20357f(%rip)        # 6044f8 <check_level>
  400f79:	8b 3d b1 31 20 00    	mov    0x2031b1(%rip),%edi        # 604130 <target_id>
  400f7f:	e8 63 1c 00 00       	callq  402be7 <gencookie>
  400f84:	89 05 7a 35 20 00    	mov    %eax,0x20357a(%rip)        # 604504 <cookie>
  400f8a:	89 c7                	mov    %eax,%edi
  400f8c:	e8 56 1c 00 00       	callq  402be7 <gencookie>
  400f91:	89 05 69 35 20 00    	mov    %eax,0x203569(%rip)        # 604500 <authkey>
  400f97:	8b 05 93 31 20 00    	mov    0x203193(%rip),%eax        # 604130 <target_id>
  400f9d:	8d 78 01             	lea    0x1(%rax),%edi
  400fa0:	e8 5b fc ff ff       	callq  400c00 <srandom@plt>
  400fa5:	e8 66 fd ff ff       	callq  400d10 <random@plt>
  400faa:	89 c7                	mov    %eax,%edi
  400fac:	e8 c3 02 00 00       	callq  401274 <scramble>
  400fb1:	89 c3                	mov    %eax,%ebx
  400fb3:	85 ed                	test   %ebp,%ebp
  400fb5:	75 3d                	jne    400ff4 <initialize_target+0x8c>
  400fb7:	b8 00 00 00 00       	mov    $0x0,%eax
  400fbc:	01 d8                	add    %ebx,%eax
  400fbe:	0f b7 c0             	movzwl %ax,%eax
  400fc1:	8d 04 c5 00 01 00 00 	lea    0x100(,%rax,8),%eax
  400fc8:	89 c0                	mov    %eax,%eax
  400fca:	48 89 05 af 34 20 00 	mov    %rax,0x2034af(%rip)        # 604480 <buf_offset>
  400fd1:	c6 05 50 41 20 00 63 	movb   $0x63,0x204150(%rip)        # 605128 <target_prefix>
  400fd8:	83 3d a9 34 20 00 00 	cmpl   $0x0,0x2034a9(%rip)        # 604488 <notify>
  400fdf:	74 09                	je     400fea <initialize_target+0x82>
  400fe1:	83 3d 20 35 20 00 00 	cmpl   $0x0,0x203520(%rip)        # 604508 <is_checker>
  400fe8:	74 22                	je     40100c <initialize_target+0xa4>
  400fea:	48 81 c4 08 21 00 00 	add    $0x2108,%rsp
  400ff1:	5b                   	pop    %rbx
  400ff2:	5d                   	pop    %rbp
  400ff3:	c3                   	retq   
  400ff4:	bf 00 00 00 00       	mov    $0x0,%edi
  400ff9:	e8 02 fd ff ff       	callq  400d00 <time@plt>
  400ffe:	89 c7                	mov    %eax,%edi
  401000:	e8 fb fb ff ff       	callq  400c00 <srandom@plt>
  401005:	e8 06 fd ff ff       	callq  400d10 <random@plt>
  40100a:	eb b0                	jmp    400fbc <initialize_target+0x54>
  40100c:	48 89 e7             	mov    %rsp,%rdi
  40100f:	be 00 01 00 00       	mov    $0x100,%esi
  401014:	e8 77 fd ff ff       	callq  400d90 <gethostname@plt>
  401019:	89 c3                	mov    %eax,%ebx
  40101b:	85 c0                	test   %eax,%eax
  40101d:	75 24                	jne    401043 <initialize_target+0xdb>
  40101f:	48 63 c3             	movslq %ebx,%rax
  401022:	48 8d 15 37 31 20 00 	lea    0x203137(%rip),%rdx        # 604160 <host_table>
  401029:	48 8b 3c c2          	mov    (%rdx,%rax,8),%rdi
  40102d:	48 85 ff             	test   %rdi,%rdi
  401030:	74 27                	je     401059 <initialize_target+0xf1>
  401032:	48 89 e6             	mov    %rsp,%rsi
  401035:	e8 a6 fb ff ff       	callq  400be0 <strcasecmp@plt>
  40103a:	85 c0                	test   %eax,%eax
  40103c:	74 1b                	je     401059 <initialize_target+0xf1>
  40103e:	83 c3 01             	add    $0x1,%ebx
  401041:	eb dc                	jmp    40101f <initialize_target+0xb7>
  401043:	48 8d 3d 2e 1d 00 00 	lea    0x1d2e(%rip),%rdi        # 402d78 <_IO_stdin_used+0xe8>
  40104a:	e8 e1 fb ff ff       	callq  400c30 <puts@plt>
  40104f:	bf 08 00 00 00       	mov    $0x8,%edi
  401054:	e8 57 fd ff ff       	callq  400db0 <exit@plt>
  401059:	48 8d bc 24 00 01 00 	lea    0x100(%rsp),%rdi
  401060:	00 
  401061:	e8 06 19 00 00       	callq  40296c <init_driver>
  401066:	85 c0                	test   %eax,%eax
  401068:	79 80                	jns    400fea <initialize_target+0x82>
  40106a:	48 8d b4 24 00 01 00 	lea    0x100(%rsp),%rsi
  401071:	00 
  401072:	48 8d 3d 37 1d 00 00 	lea    0x1d37(%rip),%rdi        # 402db0 <_IO_stdin_used+0x120>
  401079:	b8 00 00 00 00       	mov    $0x0,%eax
  40107e:	e8 dd fb ff ff       	callq  400c60 <printf@plt>
  401083:	bf 08 00 00 00       	mov    $0x8,%edi
  401088:	e8 23 fd ff ff       	callq  400db0 <exit@plt>

000000000040108d <main>:
  40108d:	41 56                	push   %r14
  40108f:	41 55                	push   %r13
  401091:	41 54                	push   %r12
  401093:	55                   	push   %rbp
  401094:	53                   	push   %rbx
  401095:	41 89 fc             	mov    %edi,%r12d
  401098:	48 89 f3             	mov    %rsi,%rbx
  40109b:	48 c7 c6 12 1d 40 00 	mov    $0x401d12,%rsi
  4010a2:	bf 0b 00 00 00       	mov    $0xb,%edi
  4010a7:	e8 04 fc ff ff       	callq  400cb0 <signal@plt>
  4010ac:	48 c7 c6 be 1c 40 00 	mov    $0x401cbe,%rsi
  4010b3:	bf 07 00 00 00       	mov    $0x7,%edi
  4010b8:	e8 f3 fb ff ff       	callq  400cb0 <signal@plt>
  4010bd:	48 c7 c6 66 1d 40 00 	mov    $0x401d66,%rsi
  4010c4:	bf 04 00 00 00       	mov    $0x4,%edi
  4010c9:	e8 e2 fb ff ff       	callq  400cb0 <signal@plt>
  4010ce:	83 3d 33 34 20 00 00 	cmpl   $0x0,0x203433(%rip)        # 604508 <is_checker>
  4010d5:	75 58                	jne    40112f <main+0xa2>
  4010d7:	48 8d 2d 97 1d 00 00 	lea    0x1d97(%rip),%rbp        # 402e75 <_IO_stdin_used+0x1e5>
  4010de:	48 8b 05 bb 33 20 00 	mov    0x2033bb(%rip),%rax        # 6044a0 <stdin@@GLIBC_2.2.5>
  4010e5:	48 89 05 04 34 20 00 	mov    %rax,0x203404(%rip)        # 6044f0 <infile>
  4010ec:	41 bd 00 00 00 00    	mov    $0x0,%r13d
  4010f2:	41 be 00 00 00 00    	mov    $0x0,%r14d
  4010f8:	48 89 ea             	mov    %rbp,%rdx
  4010fb:	48 89 de             	mov    %rbx,%rsi
  4010fe:	44 89 e7             	mov    %r12d,%edi
  401101:	e8 6a fc ff ff       	callq  400d70 <getopt@plt>
  401106:	3c ff                	cmp    $0xff,%al
  401108:	0f 84 f8 00 00 00    	je     401206 <main+0x179>
  40110e:	0f be f0             	movsbl %al,%esi
  401111:	83 e8 61             	sub    $0x61,%eax
  401114:	3c 10                	cmp    $0x10,%al
  401116:	0f 87 d1 00 00 00    	ja     4011ed <main+0x160>
  40111c:	0f b6 c0             	movzbl %al,%eax
  40111f:	48 8d 15 9a 1d 00 00 	lea    0x1d9a(%rip),%rdx        # 402ec0 <_IO_stdin_used+0x230>
  401126:	48 63 04 82          	movslq (%rdx,%rax,4),%rax
  40112a:	48 01 d0             	add    %rdx,%rax
  40112d:	ff e0                	jmpq   *%rax
  40112f:	48 c7 c6 ba 1d 40 00 	mov    $0x401dba,%rsi
  401136:	bf 0e 00 00 00       	mov    $0xe,%edi
  40113b:	e8 70 fb ff ff       	callq  400cb0 <signal@plt>
  401140:	bf 05 00 00 00       	mov    $0x5,%edi
  401145:	e8 36 fb ff ff       	callq  400c80 <alarm@plt>
  40114a:	48 8d 2d 29 1d 00 00 	lea    0x1d29(%rip),%rbp        # 402e7a <_IO_stdin_used+0x1ea>
  401151:	eb 8b                	jmp    4010de <main+0x51>
  401153:	48 8b 3b             	mov    (%rbx),%rdi
  401156:	e8 7b fd ff ff       	callq  400ed6 <usage>
  40115b:	48 8d 35 a3 1f 00 00 	lea    0x1fa3(%rip),%rsi        # 403105 <_IO_stdin_used+0x475>
  401162:	48 8b 3d 3f 33 20 00 	mov    0x20333f(%rip),%rdi        # 6044a8 <optarg@@GLIBC_2.2.5>
  401169:	e8 f2 fb ff ff       	callq  400d60 <fopen@plt>
  40116e:	48 89 05 7b 33 20 00 	mov    %rax,0x20337b(%rip)        # 6044f0 <infile>
  401175:	48 85 c0             	test   %rax,%rax
  401178:	0f 85 7a ff ff ff    	jne    4010f8 <main+0x6b>
  40117e:	48 8b 15 23 33 20 00 	mov    0x203323(%rip),%rdx        # 6044a8 <optarg@@GLIBC_2.2.5>
  401185:	48 8d 35 f6 1c 00 00 	lea    0x1cf6(%rip),%rsi        # 402e82 <_IO_stdin_used+0x1f2>
  40118c:	48 8b 3d 2d 33 20 00 	mov    0x20332d(%rip),%rdi        # 6044c0 <stderr@@GLIBC_2.2.5>
  401193:	e8 38 fb ff ff       	callq  400cd0 <fprintf@plt>
  401198:	b8 01 00 00 00       	mov    $0x1,%eax
  40119d:	e9 c9 00 00 00       	jmpq   40126b <main+0x1de>
  4011a2:	ba 10 00 00 00       	mov    $0x10,%edx
  4011a7:	be 00 00 00 00       	mov    $0x0,%esi
  4011ac:	48 8b 3d f5 32 20 00 	mov    0x2032f5(%rip),%rdi        # 6044a8 <optarg@@GLIBC_2.2.5>
  4011b3:	e8 c8 fb ff ff       	callq  400d80 <strtoul@plt>
  4011b8:	41 89 c6             	mov    %eax,%r14d
  4011bb:	e9 38 ff ff ff       	jmpq   4010f8 <main+0x6b>
  4011c0:	ba 0a 00 00 00       	mov    $0xa,%edx
  4011c5:	be 00 00 00 00       	mov    $0x0,%esi
  4011ca:	48 8b 3d d7 32 20 00 	mov    0x2032d7(%rip),%rdi        # 6044a8 <optarg@@GLIBC_2.2.5>
  4011d1:	e8 0a fb ff ff       	callq  400ce0 <strtol@plt>
  4011d6:	41 89 c5             	mov    %eax,%r13d
  4011d9:	e9 1a ff ff ff       	jmpq   4010f8 <main+0x6b>
  4011de:	c7 05 a0 32 20 00 00 	movl   $0x0,0x2032a0(%rip)        # 604488 <notify>
  4011e5:	00 00 00 
  4011e8:	e9 0b ff ff ff       	jmpq   4010f8 <main+0x6b>
  4011ed:	48 8d 3d ab 1c 00 00 	lea    0x1cab(%rip),%rdi        # 402e9f <_IO_stdin_used+0x20f>
  4011f4:	b8 00 00 00 00       	mov    $0x0,%eax
  4011f9:	e8 62 fa ff ff       	callq  400c60 <printf@plt>
  4011fe:	48 8b 3b             	mov    (%rbx),%rdi
  401201:	e8 d0 fc ff ff       	callq  400ed6 <usage>
  401206:	be 00 00 00 00       	mov    $0x0,%esi
  40120b:	44 89 ef             	mov    %r13d,%edi
  40120e:	e8 55 fd ff ff       	callq  400f68 <initialize_target>
  401213:	83 3d ee 32 20 00 00 	cmpl   $0x0,0x2032ee(%rip)        # 604508 <is_checker>
  40121a:	74 27                	je     401243 <main+0x1b6>
  40121c:	44 3b 35 dd 32 20 00 	cmp    0x2032dd(%rip),%r14d        # 604500 <authkey>
  401223:	74 1e                	je     401243 <main+0x1b6>
  401225:	44 89 f6             	mov    %r14d,%esi
  401228:	48 8d 3d a9 1b 00 00 	lea    0x1ba9(%rip),%rdi        # 402dd8 <_IO_stdin_used+0x148>
  40122f:	b8 00 00 00 00       	mov    $0x0,%eax
  401234:	e8 27 fa ff ff       	callq  400c60 <printf@plt>
  401239:	b8 00 00 00 00       	mov    $0x0,%eax
  40123e:	e8 4b 07 00 00       	callq  40198e <check_fail>
  401243:	8b 35 bb 32 20 00    	mov    0x2032bb(%rip),%esi        # 604504 <cookie>
  401249:	48 8d 3d 62 1c 00 00 	lea    0x1c62(%rip),%rdi        # 402eb2 <_IO_stdin_used+0x222>
  401250:	b8 00 00 00 00       	mov    $0x0,%eax
  401255:	e8 06 fa ff ff       	callq  400c60 <printf@plt>
  40125a:	48 8b 3d 1f 32 20 00 	mov    0x20321f(%rip),%rdi        # 604480 <buf_offset>
  401261:	e8 2f 0c 00 00       	callq  401e95 <stable_launch>
  401266:	b8 00 00 00 00       	mov    $0x0,%eax
  40126b:	5b                   	pop    %rbx
  40126c:	5d                   	pop    %rbp
  40126d:	41 5c                	pop    %r12
  40126f:	41 5d                	pop    %r13
  401271:	41 5e                	pop    %r14
  401273:	c3                   	retq   

0000000000401274 <scramble>:
  401274:	b8 00 00 00 00       	mov    $0x0,%eax
  401279:	eb 11                	jmp    40128c <scramble+0x18>
  40127b:	69 d0 fc 9d 00 00    	imul   $0x9dfc,%eax,%edx
  401281:	01 fa                	add    %edi,%edx
  401283:	89 c1                	mov    %eax,%ecx
  401285:	89 54 8c d0          	mov    %edx,-0x30(%rsp,%rcx,4)
  401289:	83 c0 01             	add    $0x1,%eax
  40128c:	83 f8 09             	cmp    $0x9,%eax
  40128f:	76 ea                	jbe    40127b <scramble+0x7>
  401291:	8b 44 24 f0          	mov    -0x10(%rsp),%eax
  401295:	69 c0 ed ae 00 00    	imul   $0xaeed,%eax,%eax
  40129b:	89 44 24 f0          	mov    %eax,-0x10(%rsp)
  40129f:	8b 44 24 d0          	mov    -0x30(%rsp),%eax
  4012a3:	69 c0 35 c4 00 00    	imul   $0xc435,%eax,%eax
  4012a9:	89 44 24 d0          	mov    %eax,-0x30(%rsp)
  4012ad:	8b 44 24 e8          	mov    -0x18(%rsp),%eax
  4012b1:	69 c0 f4 2a 00 00    	imul   $0x2af4,%eax,%eax
  4012b7:	89 44 24 e8          	mov    %eax,-0x18(%rsp)
  4012bb:	8b 44 24 d8          	mov    -0x28(%rsp),%eax
  4012bf:	69 c0 7d 1b 00 00    	imul   $0x1b7d,%eax,%eax
  4012c5:	89 44 24 d8          	mov    %eax,-0x28(%rsp)
  4012c9:	8b 44 24 f4          	mov    -0xc(%rsp),%eax
  4012cd:	69 c0 83 38 00 00    	imul   $0x3883,%eax,%eax
  4012d3:	89 44 24 f4          	mov    %eax,-0xc(%rsp)
  4012d7:	8b 44 24 d8          	mov    -0x28(%rsp),%eax
  4012db:	69 c0 08 2b 00 00    	imul   $0x2b08,%eax,%eax
  4012e1:	89 44 24 d8          	mov    %eax,-0x28(%rsp)
  4012e5:	8b 44 24 ec          	mov    -0x14(%rsp),%eax
  4012e9:	69 c0 da 63 00 00    	imul   $0x63da,%eax,%eax
  4012ef:	89 44 24 ec          	mov    %eax,-0x14(%rsp)
  4012f3:	8b 44 24 e4          	mov    -0x1c(%rsp),%eax
  4012f7:	69 c0 57 5d 00 00    	imul   $0x5d57,%eax,%eax
  4012fd:	89 44 24 e4          	mov    %eax,-0x1c(%rsp)
  401301:	8b 44 24 d4          	mov    -0x2c(%rsp),%eax
  401305:	69 c0 c6 7e 00 00    	imul   $0x7ec6,%eax,%eax
  40130b:	89 44 24 d4          	mov    %eax,-0x2c(%rsp)
  40130f:	8b 44 24 d0          	mov    -0x30(%rsp),%eax
  401313:	69 c0 3c d8 00 00    	imul   $0xd83c,%eax,%eax
  401319:	89 44 24 d0          	mov    %eax,-0x30(%rsp)
  40131d:	8b 44 24 e4          	mov    -0x1c(%rsp),%eax
  401321:	69 c0 d9 90 00 00    	imul   $0x90d9,%eax,%eax
  401327:	89 44 24 e4          	mov    %eax,-0x1c(%rsp)
  40132b:	8b 44 24 d0          	mov    -0x30(%rsp),%eax
  40132f:	69 c0 dc 09 00 00    	imul   $0x9dc,%eax,%eax
  401335:	89 44 24 d0          	mov    %eax,-0x30(%rsp)
  401339:	8b 44 24 dc          	mov    -0x24(%rsp),%eax
  40133d:	69 c0 f6 bc 00 00    	imul   $0xbcf6,%eax,%eax
  401343:	89 44 24 dc          	mov    %eax,-0x24(%rsp)
  401347:	8b 44 24 e0          	mov    -0x20(%rsp),%eax
  40134b:	69 c0 e5 88 00 00    	imul   $0x88e5,%eax,%eax
  401351:	89 44 24 e0          	mov    %eax,-0x20(%rsp)
  401355:	8b 44 24 ec          	mov    -0x14(%rsp),%eax
  401359:	69 c0 c7 71 00 00    	imul   $0x71c7,%eax,%eax
  40135f:	89 44 24 ec          	mov    %eax,-0x14(%rsp)
  401363:	8b 44 24 f0          	mov    -0x10(%rsp),%eax
  401367:	69 c0 25 16 00 00    	imul   $0x1625,%eax,%eax
  40136d:	89 44 24 f0          	mov    %eax,-0x10(%rsp)
  401371:	8b 44 24 f0          	mov    -0x10(%rsp),%eax
  401375:	69 c0 66 44 00 00    	imul   $0x4466,%eax,%eax
  40137b:	89 44 24 f0          	mov    %eax,-0x10(%rsp)
  40137f:	8b 44 24 e0          	mov    -0x20(%rsp),%eax
  401383:	69 c0 8c 13 00 00    	imul   $0x138c,%eax,%eax
  401389:	89 44 24 e0          	mov    %eax,-0x20(%rsp)
  40138d:	8b 44 24 dc          	mov    -0x24(%rsp),%eax
  401391:	69 c0 f0 43 00 00    	imul   $0x43f0,%eax,%eax
  401397:	89 44 24 dc          	mov    %eax,-0x24(%rsp)
  40139b:	8b 44 24 e4          	mov    -0x1c(%rsp),%eax
  40139f:	69 c0 2d 87 00 00    	imul   $0x872d,%eax,%eax
  4013a5:	89 44 24 e4          	mov    %eax,-0x1c(%rsp)
  4013a9:	8b 44 24 d4          	mov    -0x2c(%rsp),%eax
  4013ad:	69 c0 10 a2 00 00    	imul   $0xa210,%eax,%eax
  4013b3:	89 44 24 d4          	mov    %eax,-0x2c(%rsp)
  4013b7:	8b 44 24 d8          	mov    -0x28(%rsp),%eax
  4013bb:	69 c0 0b bc 00 00    	imul   $0xbc0b,%eax,%eax
  4013c1:	89 44 24 d8          	mov    %eax,-0x28(%rsp)
  4013c5:	8b 44 24 f0          	mov    -0x10(%rsp),%eax
  4013c9:	69 c0 ae 55 00 00    	imul   $0x55ae,%eax,%eax
  4013cf:	89 44 24 f0          	mov    %eax,-0x10(%rsp)
  4013d3:	8b 44 24 d0          	mov    -0x30(%rsp),%eax
  4013d7:	69 c0 f8 e6 00 00    	imul   $0xe6f8,%eax,%eax
  4013dd:	89 44 24 d0          	mov    %eax,-0x30(%rsp)
  4013e1:	8b 44 24 d8          	mov    -0x28(%rsp),%eax
  4013e5:	69 c0 85 5e 00 00    	imul   $0x5e85,%eax,%eax
  4013eb:	89 44 24 d8          	mov    %eax,-0x28(%rsp)
  4013ef:	8b 44 24 f0          	mov    -0x10(%rsp),%eax
  4013f3:	69 c0 68 54 00 00    	imul   $0x5468,%eax,%eax
  4013f9:	89 44 24 f0          	mov    %eax,-0x10(%rsp)
  4013fd:	8b 44 24 e4          	mov    -0x1c(%rsp),%eax
  401401:	69 c0 7b 62 00 00    	imul   $0x627b,%eax,%eax
  401407:	89 44 24 e4          	mov    %eax,-0x1c(%rsp)
  40140b:	8b 44 24 e4          	mov    -0x1c(%rsp),%eax
  40140f:	69 c0 51 a9 00 00    	imul   $0xa951,%eax,%eax
  401415:	89 44 24 e4          	mov    %eax,-0x1c(%rsp)
  401419:	8b 44 24 d0          	mov    -0x30(%rsp),%eax
  40141d:	69 c0 e2 ae 00 00    	imul   $0xaee2,%eax,%eax
  401423:	89 44 24 d0          	mov    %eax,-0x30(%rsp)
  401427:	8b 44 24 e4          	mov    -0x1c(%rsp),%eax
  40142b:	69 c0 9a 97 00 00    	imul   $0x979a,%eax,%eax
  401431:	89 44 24 e4          	mov    %eax,-0x1c(%rsp)
  401435:	8b 44 24 dc          	mov    -0x24(%rsp),%eax
  401439:	69 c0 c3 8b 00 00    	imul   $0x8bc3,%eax,%eax
  40143f:	89 44 24 dc          	mov    %eax,-0x24(%rsp)
  401443:	8b 44 24 e4          	mov    -0x1c(%rsp),%eax
  401447:	69 c0 5d 41 00 00    	imul   $0x415d,%eax,%eax
  40144d:	89 44 24 e4          	mov    %eax,-0x1c(%rsp)
  401451:	8b 44 24 e0          	mov    -0x20(%rsp),%eax
  401455:	69 c0 19 88 00 00    	imul   $0x8819,%eax,%eax
  40145b:	89 44 24 e0          	mov    %eax,-0x20(%rsp)
  40145f:	8b 44 24 d8          	mov    -0x28(%rsp),%eax
  401463:	69 c0 84 3f 00 00    	imul   $0x3f84,%eax,%eax
  401469:	89 44 24 d8          	mov    %eax,-0x28(%rsp)
  40146d:	8b 44 24 dc          	mov    -0x24(%rsp),%eax
  401471:	69 c0 f3 83 00 00    	imul   $0x83f3,%eax,%eax
  401477:	89 44 24 dc          	mov    %eax,-0x24(%rsp)
  40147b:	8b 44 24 e0          	mov    -0x20(%rsp),%eax
  40147f:	69 c0 7d 48 00 00    	imul   $0x487d,%eax,%eax
  401485:	89 44 24 e0          	mov    %eax,-0x20(%rsp)
  401489:	8b 44 24 e4          	mov    -0x1c(%rsp),%eax
  40148d:	69 c0 e6 78 00 00    	imul   $0x78e6,%eax,%eax
  401493:	89 44 24 e4          	mov    %eax,-0x1c(%rsp)
  401497:	8b 44 24 e0          	mov    -0x20(%rsp),%eax
  40149b:	69 c0 ee 2b 00 00    	imul   $0x2bee,%eax,%eax
  4014a1:	89 44 24 e0          	mov    %eax,-0x20(%rsp)
  4014a5:	8b 44 24 e8          	mov    -0x18(%rsp),%eax
  4014a9:	69 c0 eb 1d 00 00    	imul   $0x1deb,%eax,%eax
  4014af:	89 44 24 e8          	mov    %eax,-0x18(%rsp)
  4014b3:	8b 44 24 ec          	mov    -0x14(%rsp),%eax
  4014b7:	69 c0 08 a3 00 00    	imul   $0xa308,%eax,%eax
  4014bd:	89 44 24 ec          	mov    %eax,-0x14(%rsp)
  4014c1:	8b 44 24 e8          	mov    -0x18(%rsp),%eax
  4014c5:	69 c0 1a d2 00 00    	imul   $0xd21a,%eax,%eax
  4014cb:	89 44 24 e8          	mov    %eax,-0x18(%rsp)
  4014cf:	8b 44 24 f4          	mov    -0xc(%rsp),%eax
  4014d3:	69 c0 cf 6b 00 00    	imul   $0x6bcf,%eax,%eax
  4014d9:	89 44 24 f4          	mov    %eax,-0xc(%rsp)
  4014dd:	8b 44 24 e8          	mov    -0x18(%rsp),%eax
  4014e1:	69 c0 b5 55 00 00    	imul   $0x55b5,%eax,%eax
  4014e7:	89 44 24 e8          	mov    %eax,-0x18(%rsp)
  4014eb:	8b 44 24 f4          	mov    -0xc(%rsp),%eax
  4014ef:	69 c0 07 54 00 00    	imul   $0x5407,%eax,%eax
  4014f5:	89 44 24 f4          	mov    %eax,-0xc(%rsp)
  4014f9:	8b 44 24 ec          	mov    -0x14(%rsp),%eax
  4014fd:	69 c0 56 47 00 00    	imul   $0x4756,%eax,%eax
  401503:	89 44 24 ec          	mov    %eax,-0x14(%rsp)
  401507:	8b 44 24 e0          	mov    -0x20(%rsp),%eax
  40150b:	69 c0 40 25 00 00    	imul   $0x2540,%eax,%eax
  401511:	89 44 24 e0          	mov    %eax,-0x20(%rsp)
  401515:	8b 44 24 d8          	mov    -0x28(%rsp),%eax
  401519:	69 c0 60 99 00 00    	imul   $0x9960,%eax,%eax
  40151f:	89 44 24 d8          	mov    %eax,-0x28(%rsp)
  401523:	8b 44 24 e4          	mov    -0x1c(%rsp),%eax
  401527:	69 c0 43 a3 00 00    	imul   $0xa343,%eax,%eax
  40152d:	89 44 24 e4          	mov    %eax,-0x1c(%rsp)
  401531:	8b 44 24 e4          	mov    -0x1c(%rsp),%eax
  401535:	69 c0 88 bb 00 00    	imul   $0xbb88,%eax,%eax
  40153b:	89 44 24 e4          	mov    %eax,-0x1c(%rsp)
  40153f:	8b 44 24 ec          	mov    -0x14(%rsp),%eax
  401543:	69 c0 83 ed 00 00    	imul   $0xed83,%eax,%eax
  401549:	89 44 24 ec          	mov    %eax,-0x14(%rsp)
  40154d:	8b 44 24 ec          	mov    -0x14(%rsp),%eax
  401551:	69 c0 78 a9 00 00    	imul   $0xa978,%eax,%eax
  401557:	89 44 24 ec          	mov    %eax,-0x14(%rsp)
  40155b:	8b 44 24 d8          	mov    -0x28(%rsp),%eax
  40155f:	69 c0 7f 65 00 00    	imul   $0x657f,%eax,%eax
  401565:	89 44 24 d8          	mov    %eax,-0x28(%rsp)
  401569:	8b 44 24 d0          	mov    -0x30(%rsp),%eax
  40156d:	69 c0 8a 3a 00 00    	imul   $0x3a8a,%eax,%eax
  401573:	89 44 24 d0          	mov    %eax,-0x30(%rsp)
  401577:	8b 44 24 f4          	mov    -0xc(%rsp),%eax
  40157b:	69 c0 f2 f0 00 00    	imul   $0xf0f2,%eax,%eax
  401581:	89 44 24 f4          	mov    %eax,-0xc(%rsp)
  401585:	8b 44 24 d8          	mov    -0x28(%rsp),%eax
  401589:	69 c0 54 a4 00 00    	imul   $0xa454,%eax,%eax
  40158f:	89 44 24 d8          	mov    %eax,-0x28(%rsp)
  401593:	8b 44 24 d4          	mov    -0x2c(%rsp),%eax
  401597:	69 c0 e6 d4 00 00    	imul   $0xd4e6,%eax,%eax
  40159d:	89 44 24 d4          	mov    %eax,-0x2c(%rsp)
  4015a1:	8b 44 24 e8          	mov    -0x18(%rsp),%eax
  4015a5:	69 c0 6b 8b 00 00    	imul   $0x8b6b,%eax,%eax
  4015ab:	89 44 24 e8          	mov    %eax,-0x18(%rsp)
  4015af:	8b 44 24 d0          	mov    -0x30(%rsp),%eax
  4015b3:	69 c0 04 ab 00 00    	imul   $0xab04,%eax,%eax
  4015b9:	89 44 24 d0          	mov    %eax,-0x30(%rsp)
  4015bd:	8b 44 24 ec          	mov    -0x14(%rsp),%eax
  4015c1:	69 c0 d6 55 00 00    	imul   $0x55d6,%eax,%eax
  4015c7:	89 44 24 ec          	mov    %eax,-0x14(%rsp)
  4015cb:	8b 44 24 d4          	mov    -0x2c(%rsp),%eax
  4015cf:	69 c0 b8 e5 00 00    	imul   $0xe5b8,%eax,%eax
  4015d5:	89 44 24 d4          	mov    %eax,-0x2c(%rsp)
  4015d9:	8b 44 24 d0          	mov    -0x30(%rsp),%eax
  4015dd:	69 c0 ac ea 00 00    	imul   $0xeaac,%eax,%eax
  4015e3:	89 44 24 d0          	mov    %eax,-0x30(%rsp)
  4015e7:	8b 44 24 f0          	mov    -0x10(%rsp),%eax
  4015eb:	69 c0 47 70 00 00    	imul   $0x7047,%eax,%eax
  4015f1:	89 44 24 f0          	mov    %eax,-0x10(%rsp)
  4015f5:	8b 44 24 d0          	mov    -0x30(%rsp),%eax
  4015f9:	69 c0 96 71 00 00    	imul   $0x7196,%eax,%eax
  4015ff:	89 44 24 d0          	mov    %eax,-0x30(%rsp)
  401603:	8b 44 24 d8          	mov    -0x28(%rsp),%eax
  401607:	69 c0 86 a5 00 00    	imul   $0xa586,%eax,%eax
  40160d:	89 44 24 d8          	mov    %eax,-0x28(%rsp)
  401611:	8b 44 24 e4          	mov    -0x1c(%rsp),%eax
  401615:	69 c0 52 f6 00 00    	imul   $0xf652,%eax,%eax
  40161b:	89 44 24 e4          	mov    %eax,-0x1c(%rsp)
  40161f:	8b 44 24 e0          	mov    -0x20(%rsp),%eax
  401623:	69 c0 9a 6c 00 00    	imul   $0x6c9a,%eax,%eax
  401629:	89 44 24 e0          	mov    %eax,-0x20(%rsp)
  40162d:	8b 44 24 e4          	mov    -0x1c(%rsp),%eax
  401631:	69 c0 0a c9 00 00    	imul   $0xc90a,%eax,%eax
  401637:	89 44 24 e4          	mov    %eax,-0x1c(%rsp)
  40163b:	8b 44 24 e8          	mov    -0x18(%rsp),%eax
  40163f:	69 c0 29 c2 00 00    	imul   $0xc229,%eax,%eax
  401645:	89 44 24 e8          	mov    %eax,-0x18(%rsp)
  401649:	8b 44 24 ec          	mov    -0x14(%rsp),%eax
  40164d:	69 c0 87 63 00 00    	imul   $0x6387,%eax,%eax
  401653:	89 44 24 ec          	mov    %eax,-0x14(%rsp)
  401657:	8b 44 24 e8          	mov    -0x18(%rsp),%eax
  40165b:	69 c0 0a 5c 00 00    	imul   $0x5c0a,%eax,%eax
  401661:	89 44 24 e8          	mov    %eax,-0x18(%rsp)
  401665:	8b 44 24 e8          	mov    -0x18(%rsp),%eax
  401669:	69 c0 16 47 00 00    	imul   $0x4716,%eax,%eax
  40166f:	89 44 24 e8          	mov    %eax,-0x18(%rsp)
  401673:	8b 44 24 f4          	mov    -0xc(%rsp),%eax
  401677:	69 c0 4b 7e 00 00    	imul   $0x7e4b,%eax,%eax
  40167d:	89 44 24 f4          	mov    %eax,-0xc(%rsp)
  401681:	8b 44 24 d4          	mov    -0x2c(%rsp),%eax
  401685:	69 c0 a6 71 00 00    	imul   $0x71a6,%eax,%eax
  40168b:	89 44 24 d4          	mov    %eax,-0x2c(%rsp)
  40168f:	8b 44 24 f4          	mov    -0xc(%rsp),%eax
  401693:	69 c0 a1 b3 00 00    	imul   $0xb3a1,%eax,%eax
  401699:	89 44 24 f4          	mov    %eax,-0xc(%rsp)
  40169d:	8b 44 24 e4          	mov    -0x1c(%rsp),%eax
  4016a1:	69 c0 5b 28 00 00    	imul   $0x285b,%eax,%eax
  4016a7:	89 44 24 e4          	mov    %eax,-0x1c(%rsp)
  4016ab:	8b 44 24 e4          	mov    -0x1c(%rsp),%eax
  4016af:	69 c0 aa 64 00 00    	imul   $0x64aa,%eax,%eax
  4016b5:	89 44 24 e4          	mov    %eax,-0x1c(%rsp)
  4016b9:	8b 44 24 f4          	mov    -0xc(%rsp),%eax
  4016bd:	69 c0 52 a4 00 00    	imul   $0xa452,%eax,%eax
  4016c3:	89 44 24 f4          	mov    %eax,-0xc(%rsp)
  4016c7:	8b 44 24 e0          	mov    -0x20(%rsp),%eax
  4016cb:	69 c0 14 97 00 00    	imul   $0x9714,%eax,%eax
  4016d1:	89 44 24 e0          	mov    %eax,-0x20(%rsp)
  4016d5:	8b 44 24 d0          	mov    -0x30(%rsp),%eax
  4016d9:	69 c0 7b e8 00 00    	imul   $0xe87b,%eax,%eax
  4016df:	89 44 24 d0          	mov    %eax,-0x30(%rsp)
  4016e3:	8b 44 24 ec          	mov    -0x14(%rsp),%eax
  4016e7:	69 c0 07 43 00 00    	imul   $0x4307,%eax,%eax
  4016ed:	89 44 24 ec          	mov    %eax,-0x14(%rsp)
  4016f1:	8b 44 24 d4          	mov    -0x2c(%rsp),%eax
  4016f5:	69 c0 a3 cf 00 00    	imul   $0xcfa3,%eax,%eax
  4016fb:	89 44 24 d4          	mov    %eax,-0x2c(%rsp)
  4016ff:	8b 44 24 d0          	mov    -0x30(%rsp),%eax
  401703:	69 c0 98 7e 00 00    	imul   $0x7e98,%eax,%eax
  401709:	89 44 24 d0          	mov    %eax,-0x30(%rsp)
  40170d:	8b 44 24 d4          	mov    -0x2c(%rsp),%eax
  401711:	69 c0 ba 81 00 00    	imul   $0x81ba,%eax,%eax
  401717:	89 44 24 d4          	mov    %eax,-0x2c(%rsp)
  40171b:	8b 44 24 e0          	mov    -0x20(%rsp),%eax
  40171f:	69 c0 42 9c 00 00    	imul   $0x9c42,%eax,%eax
  401725:	89 44 24 e0          	mov    %eax,-0x20(%rsp)
  401729:	8b 44 24 e8          	mov    -0x18(%rsp),%eax
  40172d:	69 c0 dc f3 00 00    	imul   $0xf3dc,%eax,%eax
  401733:	89 44 24 e8          	mov    %eax,-0x18(%rsp)
  401737:	8b 44 24 d0          	mov    -0x30(%rsp),%eax
  40173b:	69 c0 1e ed 00 00    	imul   $0xed1e,%eax,%eax
  401741:	89 44 24 d0          	mov    %eax,-0x30(%rsp)
  401745:	8b 44 24 dc          	mov    -0x24(%rsp),%eax
  401749:	69 c0 3d 29 00 00    	imul   $0x293d,%eax,%eax
  40174f:	89 44 24 dc          	mov    %eax,-0x24(%rsp)
  401753:	ba 00 00 00 00       	mov    $0x0,%edx
  401758:	b8 00 00 00 00       	mov    $0x0,%eax
  40175d:	eb 0b                	jmp    40176a <scramble+0x4f6>
  40175f:	89 d1                	mov    %edx,%ecx
  401761:	8b 4c 8c d0          	mov    -0x30(%rsp,%rcx,4),%ecx
  401765:	01 c8                	add    %ecx,%eax
  401767:	83 c2 01             	add    $0x1,%edx
  40176a:	83 fa 09             	cmp    $0x9,%edx
  40176d:	76 f0                	jbe    40175f <scramble+0x4eb>
  40176f:	f3 c3                	repz retq 

0000000000401771 <getbuf>:
  401771:	48 83 ec 18          	sub    $0x18,%rsp
  401775:	48 89 e7             	mov    %rsp,%rdi
  401778:	e8 44 02 00 00       	callq  4019c1 <Gets>
  40177d:	b8 01 00 00 00       	mov    $0x1,%eax
  401782:	48 83 c4 18          	add    $0x18,%rsp
  401786:	c3                   	retq   

0000000000401787 <touch1>:
  401787:	48 83 ec 08          	sub    $0x8,%rsp
  40178b:	c7 05 67 2d 20 00 01 	movl   $0x1,0x202d67(%rip)        # 6044fc <vlevel>
  401792:	00 00 00 
  401795:	48 8d 3d bf 17 00 00 	lea    0x17bf(%rip),%rdi        # 402f5b <_IO_stdin_used+0x2cb>
  40179c:	e8 8f f4 ff ff       	callq  400c30 <puts@plt>
  4017a1:	bf 01 00 00 00       	mov    $0x1,%edi
  4017a6:	e8 2d 04 00 00       	callq  401bd8 <validate>
  4017ab:	bf 00 00 00 00       	mov    $0x0,%edi
  4017b0:	e8 fb f5 ff ff       	callq  400db0 <exit@plt>

00000000004017b5 <touch2>:
  4017b5:	48 83 ec 08          	sub    $0x8,%rsp
  4017b9:	89 fe                	mov    %edi,%esi
  4017bb:	c7 05 37 2d 20 00 02 	movl   $0x2,0x202d37(%rip)        # 6044fc <vlevel>
  4017c2:	00 00 00 
  4017c5:	39 3d 39 2d 20 00    	cmp    %edi,0x202d39(%rip)        # 604504 <cookie>
  4017cb:	74 25                	je     4017f2 <touch2+0x3d>
  4017cd:	48 8d 3d d4 17 00 00 	lea    0x17d4(%rip),%rdi        # 402fa8 <_IO_stdin_used+0x318>
  4017d4:	b8 00 00 00 00       	mov    $0x0,%eax
  4017d9:	e8 82 f4 ff ff       	callq  400c60 <printf@plt>
  4017de:	bf 02 00 00 00       	mov    $0x2,%edi
  4017e3:	e8 ae 04 00 00       	callq  401c96 <fail>
  4017e8:	bf 00 00 00 00       	mov    $0x0,%edi
  4017ed:	e8 be f5 ff ff       	callq  400db0 <exit@plt>
  4017f2:	48 8d 3d 87 17 00 00 	lea    0x1787(%rip),%rdi        # 402f80 <_IO_stdin_used+0x2f0>
  4017f9:	b8 00 00 00 00       	mov    $0x0,%eax
  4017fe:	e8 5d f4 ff ff       	callq  400c60 <printf@plt>
  401803:	bf 02 00 00 00       	mov    $0x2,%edi
  401808:	e8 cb 03 00 00       	callq  401bd8 <validate>
  40180d:	eb d9                	jmp    4017e8 <touch2+0x33>

000000000040180f <hexmatch>:
  40180f:	41 54                	push   %r12
  401811:	55                   	push   %rbp
  401812:	53                   	push   %rbx
  401813:	48 83 ec 70          	sub    $0x70,%rsp
  401817:	89 fd                	mov    %edi,%ebp
  401819:	48 89 f3             	mov    %rsi,%rbx
  40181c:	e8 ef f4 ff ff       	callq  400d10 <random@plt>
  401821:	48 89 c1             	mov    %rax,%rcx
  401824:	48 ba 0b d7 a3 70 3d 	movabs $0xa3d70a3d70a3d70b,%rdx
  40182b:	0a d7 a3 
  40182e:	48 f7 ea             	imul   %rdx
  401831:	48 01 ca             	add    %rcx,%rdx
  401834:	48 c1 fa 06          	sar    $0x6,%rdx
  401838:	48 89 c8             	mov    %rcx,%rax
  40183b:	48 c1 f8 3f          	sar    $0x3f,%rax
  40183f:	48 29 c2             	sub    %rax,%rdx
  401842:	48 8d 04 92          	lea    (%rdx,%rdx,4),%rax
  401846:	48 8d 14 80          	lea    (%rax,%rax,4),%rdx
  40184a:	48 8d 04 95 00 00 00 	lea    0x0(,%rdx,4),%rax
  401851:	00 
  401852:	48 29 c1             	sub    %rax,%rcx
  401855:	4c 8d 24 0c          	lea    (%rsp,%rcx,1),%r12
  401859:	89 ea                	mov    %ebp,%edx
  40185b:	48 8d 35 16 17 00 00 	lea    0x1716(%rip),%rsi        # 402f78 <_IO_stdin_used+0x2e8>
  401862:	4c 89 e7             	mov    %r12,%rdi
  401865:	b8 00 00 00 00       	mov    $0x0,%eax
  40186a:	e8 31 f5 ff ff       	callq  400da0 <sprintf@plt>
  40186f:	ba 09 00 00 00       	mov    $0x9,%edx
  401874:	4c 89 e6             	mov    %r12,%rsi
  401877:	48 89 df             	mov    %rbx,%rdi
  40187a:	e8 91 f3 ff ff       	callq  400c10 <strncmp@plt>
  40187f:	85 c0                	test   %eax,%eax
  401881:	0f 94 c0             	sete   %al
  401884:	0f b6 c0             	movzbl %al,%eax
  401887:	48 83 c4 70          	add    $0x70,%rsp
  40188b:	5b                   	pop    %rbx
  40188c:	5d                   	pop    %rbp
  40188d:	41 5c                	pop    %r12
  40188f:	c3                   	retq   

0000000000401890 <touch3>:
  401890:	53                   	push   %rbx
  401891:	48 89 fb             	mov    %rdi,%rbx
  401894:	c7 05 5e 2c 20 00 03 	movl   $0x3,0x202c5e(%rip)        # 6044fc <vlevel>
  40189b:	00 00 00 
  40189e:	48 89 fe             	mov    %rdi,%rsi
  4018a1:	8b 3d 5d 2c 20 00    	mov    0x202c5d(%rip),%edi        # 604504 <cookie>
  4018a7:	e8 63 ff ff ff       	callq  40180f <hexmatch>
  4018ac:	85 c0                	test   %eax,%eax
  4018ae:	74 28                	je     4018d8 <touch3+0x48>
  4018b0:	48 89 de             	mov    %rbx,%rsi
  4018b3:	48 8d 3d 16 17 00 00 	lea    0x1716(%rip),%rdi        # 402fd0 <_IO_stdin_used+0x340>
  4018ba:	b8 00 00 00 00       	mov    $0x0,%eax
  4018bf:	e8 9c f3 ff ff       	callq  400c60 <printf@plt>
  4018c4:	bf 03 00 00 00       	mov    $0x3,%edi
  4018c9:	e8 0a 03 00 00       	callq  401bd8 <validate>
  4018ce:	bf 00 00 00 00       	mov    $0x0,%edi
  4018d3:	e8 d8 f4 ff ff       	callq  400db0 <exit@plt>
  4018d8:	48 89 de             	mov    %rbx,%rsi
  4018db:	48 8d 3d 16 17 00 00 	lea    0x1716(%rip),%rdi        # 402ff8 <_IO_stdin_used+0x368>
  4018e2:	b8 00 00 00 00       	mov    $0x0,%eax
  4018e7:	e8 74 f3 ff ff       	callq  400c60 <printf@plt>
  4018ec:	bf 03 00 00 00       	mov    $0x3,%edi
  4018f1:	e8 a0 03 00 00       	callq  401c96 <fail>
  4018f6:	eb d6                	jmp    4018ce <touch3+0x3e>

00000000004018f8 <test>:
  4018f8:	48 83 ec 08          	sub    $0x8,%rsp
  4018fc:	b8 00 00 00 00       	mov    $0x0,%eax
  401901:	e8 6b fe ff ff       	callq  401771 <getbuf>
  401906:	89 c6                	mov    %eax,%esi
  401908:	48 8d 3d 11 17 00 00 	lea    0x1711(%rip),%rdi        # 403020 <_IO_stdin_used+0x390>
  40190f:	b8 00 00 00 00       	mov    $0x0,%eax
  401914:	e8 47 f3 ff ff       	callq  400c60 <printf@plt>
  401919:	48 83 c4 08          	add    $0x8,%rsp
  40191d:	c3                   	retq   

000000000040191e <save_char>:
  40191e:	8b 05 00 38 20 00    	mov    0x203800(%rip),%eax        # 605124 <gets_cnt>
  401924:	3d ff 03 00 00       	cmp    $0x3ff,%eax
  401929:	7f 4a                	jg     401975 <save_char+0x57>
  40192b:	8d 14 40             	lea    (%rax,%rax,2),%edx
  40192e:	89 f9                	mov    %edi,%ecx
  401930:	c0 e9 04             	shr    $0x4,%cl
  401933:	4c 8d 05 06 1a 00 00 	lea    0x1a06(%rip),%r8        # 403340 <trans_char>
  40193a:	83 e1 0f             	and    $0xf,%ecx
  40193d:	45 0f b6 0c 08       	movzbl (%r8,%rcx,1),%r9d
  401942:	48 8d 0d d7 2b 20 00 	lea    0x202bd7(%rip),%rcx        # 604520 <gets_buf>
  401949:	48 63 f2             	movslq %edx,%rsi
  40194c:	44 88 0c 31          	mov    %r9b,(%rcx,%rsi,1)
  401950:	8d 72 01             	lea    0x1(%rdx),%esi
  401953:	83 e7 0f             	and    $0xf,%edi
  401956:	41 0f b6 3c 38       	movzbl (%r8,%rdi,1),%edi
  40195b:	48 63 f6             	movslq %esi,%rsi
  40195e:	40 88 3c 31          	mov    %dil,(%rcx,%rsi,1)
  401962:	83 c2 02             	add    $0x2,%edx
  401965:	48 63 d2             	movslq %edx,%rdx
  401968:	c6 04 11 20          	movb   $0x20,(%rcx,%rdx,1)
  40196c:	83 c0 01             	add    $0x1,%eax
  40196f:	89 05 af 37 20 00    	mov    %eax,0x2037af(%rip)        # 605124 <gets_cnt>
  401975:	f3 c3                	repz retq 

0000000000401977 <save_term>:
  401977:	8b 05 a7 37 20 00    	mov    0x2037a7(%rip),%eax        # 605124 <gets_cnt>
  40197d:	8d 04 40             	lea    (%rax,%rax,2),%eax
  401980:	48 98                	cltq   
  401982:	48 8d 15 97 2b 20 00 	lea    0x202b97(%rip),%rdx        # 604520 <gets_buf>
  401989:	c6 04 02 00          	movb   $0x0,(%rdx,%rax,1)
  40198d:	c3                   	retq   

000000000040198e <check_fail>:
  40198e:	48 83 ec 08          	sub    $0x8,%rsp
  401992:	0f be 35 8f 37 20 00 	movsbl 0x20378f(%rip),%esi        # 605128 <target_prefix>
  401999:	48 8d 0d 80 2b 20 00 	lea    0x202b80(%rip),%rcx        # 604520 <gets_buf>
  4019a0:	8b 15 52 2b 20 00    	mov    0x202b52(%rip),%edx        # 6044f8 <check_level>
  4019a6:	48 8d 3d 96 16 00 00 	lea    0x1696(%rip),%rdi        # 403043 <_IO_stdin_used+0x3b3>
  4019ad:	b8 00 00 00 00       	mov    $0x0,%eax
  4019b2:	e8 a9 f2 ff ff       	callq  400c60 <printf@plt>
  4019b7:	bf 01 00 00 00       	mov    $0x1,%edi
  4019bc:	e8 ef f3 ff ff       	callq  400db0 <exit@plt>

00000000004019c1 <Gets>:
  4019c1:	41 54                	push   %r12
  4019c3:	55                   	push   %rbp
  4019c4:	53                   	push   %rbx
  4019c5:	49 89 fc             	mov    %rdi,%r12
  4019c8:	c7 05 52 37 20 00 00 	movl   $0x0,0x203752(%rip)        # 605124 <gets_cnt>
  4019cf:	00 00 00 
  4019d2:	48 89 fb             	mov    %rdi,%rbx
  4019d5:	eb 11                	jmp    4019e8 <Gets+0x27>
  4019d7:	48 8d 6b 01          	lea    0x1(%rbx),%rbp
  4019db:	88 03                	mov    %al,(%rbx)
  4019dd:	0f b6 f8             	movzbl %al,%edi
  4019e0:	e8 39 ff ff ff       	callq  40191e <save_char>
  4019e5:	48 89 eb             	mov    %rbp,%rbx
  4019e8:	48 8b 3d 01 2b 20 00 	mov    0x202b01(%rip),%rdi        # 6044f0 <infile>
  4019ef:	e8 2c f3 ff ff       	callq  400d20 <_IO_getc@plt>
  4019f4:	83 f8 ff             	cmp    $0xffffffff,%eax
  4019f7:	74 05                	je     4019fe <Gets+0x3d>
  4019f9:	83 f8 0a             	cmp    $0xa,%eax
  4019fc:	75 d9                	jne    4019d7 <Gets+0x16>
  4019fe:	c6 03 00             	movb   $0x0,(%rbx)
  401a01:	b8 00 00 00 00       	mov    $0x0,%eax
  401a06:	e8 6c ff ff ff       	callq  401977 <save_term>
  401a0b:	4c 89 e0             	mov    %r12,%rax
  401a0e:	5b                   	pop    %rbx
  401a0f:	5d                   	pop    %rbp
  401a10:	41 5c                	pop    %r12
  401a12:	c3                   	retq   

0000000000401a13 <notify_server>:
  401a13:	83 3d ee 2a 20 00 00 	cmpl   $0x0,0x202aee(%rip)        # 604508 <is_checker>
  401a1a:	0f 85 de 00 00 00    	jne    401afe <notify_server+0xeb>
  401a20:	55                   	push   %rbp
  401a21:	53                   	push   %rbx
  401a22:	48 81 ec 08 40 00 00 	sub    $0x4008,%rsp
  401a29:	89 fb                	mov    %edi,%ebx
  401a2b:	8b 05 f3 36 20 00    	mov    0x2036f3(%rip),%eax        # 605124 <gets_cnt>
  401a31:	83 c0 64             	add    $0x64,%eax
  401a34:	3d 00 20 00 00       	cmp    $0x2000,%eax
  401a39:	0f 8f c1 00 00 00    	jg     401b00 <notify_server+0xed>
  401a3f:	44 0f be 0d e1 36 20 	movsbl 0x2036e1(%rip),%r9d        # 605128 <target_prefix>
  401a46:	00 
  401a47:	83 3d 3a 2a 20 00 00 	cmpl   $0x0,0x202a3a(%rip)        # 604488 <notify>
  401a4e:	0f 84 c7 00 00 00    	je     401b1b <notify_server+0x108>
  401a54:	44 8b 05 a5 2a 20 00 	mov    0x202aa5(%rip),%r8d        # 604500 <authkey>
  401a5b:	85 db                	test   %ebx,%ebx
  401a5d:	0f 84 c3 00 00 00    	je     401b26 <notify_server+0x113>
  401a63:	48 8d 2d ef 15 00 00 	lea    0x15ef(%rip),%rbp        # 403059 <_IO_stdin_used+0x3c9>
  401a6a:	48 8d bc 24 00 20 00 	lea    0x2000(%rsp),%rdi
  401a71:	00 
  401a72:	48 8d 05 a7 2a 20 00 	lea    0x202aa7(%rip),%rax        # 604520 <gets_buf>
  401a79:	50                   	push   %rax
  401a7a:	56                   	push   %rsi
  401a7b:	48 89 e9             	mov    %rbp,%rcx
  401a7e:	8b 15 ac 26 20 00    	mov    0x2026ac(%rip),%edx        # 604130 <target_id>
  401a84:	48 8d 35 d8 15 00 00 	lea    0x15d8(%rip),%rsi        # 403063 <_IO_stdin_used+0x3d3>
  401a8b:	b8 00 00 00 00       	mov    $0x0,%eax
  401a90:	e8 0b f3 ff ff       	callq  400da0 <sprintf@plt>
  401a95:	48 83 c4 10          	add    $0x10,%rsp
  401a99:	83 3d e8 29 20 00 00 	cmpl   $0x0,0x2029e8(%rip)        # 604488 <notify>
  401aa0:	0f 84 b8 00 00 00    	je     401b5e <notify_server+0x14b>
  401aa6:	85 db                	test   %ebx,%ebx
  401aa8:	0f 84 a2 00 00 00    	je     401b50 <notify_server+0x13d>
  401aae:	48 8d 8c 24 00 20 00 	lea    0x2000(%rsp),%rcx
  401ab5:	00 
  401ab6:	49 89 e1             	mov    %rsp,%r9
  401ab9:	41 b8 00 00 00 00    	mov    $0x0,%r8d
  401abf:	48 8b 15 82 26 20 00 	mov    0x202682(%rip),%rdx        # 604148 <lab>
  401ac6:	48 8b 35 83 26 20 00 	mov    0x202683(%rip),%rsi        # 604150 <course>
  401acd:	48 8b 3d 6c 26 20 00 	mov    0x20266c(%rip),%rdi        # 604140 <user_id>
  401ad4:	e8 6e 10 00 00       	callq  402b47 <driver_post>
  401ad9:	85 c0                	test   %eax,%eax
  401adb:	78 55                	js     401b32 <notify_server+0x11f>
  401add:	48 8d 3d c4 16 00 00 	lea    0x16c4(%rip),%rdi        # 4031a8 <_IO_stdin_used+0x518>
  401ae4:	e8 47 f1 ff ff       	callq  400c30 <puts@plt>
  401ae9:	48 8d 3d 9b 15 00 00 	lea    0x159b(%rip),%rdi        # 40308b <_IO_stdin_used+0x3fb>
  401af0:	e8 3b f1 ff ff       	callq  400c30 <puts@plt>
  401af5:	48 81 c4 08 40 00 00 	add    $0x4008,%rsp
  401afc:	5b                   	pop    %rbx
  401afd:	5d                   	pop    %rbp
  401afe:	f3 c3                	repz retq 
  401b00:	48 8d 3d 71 16 00 00 	lea    0x1671(%rip),%rdi        # 403178 <_IO_stdin_used+0x4e8>
  401b07:	b8 00 00 00 00       	mov    $0x0,%eax
  401b0c:	e8 4f f1 ff ff       	callq  400c60 <printf@plt>
  401b11:	bf 01 00 00 00       	mov    $0x1,%edi
  401b16:	e8 95 f2 ff ff       	callq  400db0 <exit@plt>
  401b1b:	41 b8 ff ff ff ff    	mov    $0xffffffff,%r8d
  401b21:	e9 35 ff ff ff       	jmpq   401a5b <notify_server+0x48>
  401b26:	48 8d 2d 31 15 00 00 	lea    0x1531(%rip),%rbp        # 40305e <_IO_stdin_used+0x3ce>
  401b2d:	e9 38 ff ff ff       	jmpq   401a6a <notify_server+0x57>
  401b32:	48 89 e6             	mov    %rsp,%rsi
  401b35:	48 8d 3d 43 15 00 00 	lea    0x1543(%rip),%rdi        # 40307f <_IO_stdin_used+0x3ef>
  401b3c:	b8 00 00 00 00       	mov    $0x0,%eax
  401b41:	e8 1a f1 ff ff       	callq  400c60 <printf@plt>
  401b46:	bf 01 00 00 00       	mov    $0x1,%edi
  401b4b:	e8 60 f2 ff ff       	callq  400db0 <exit@plt>
  401b50:	48 8d 3d 3e 15 00 00 	lea    0x153e(%rip),%rdi        # 403095 <_IO_stdin_used+0x405>
  401b57:	e8 d4 f0 ff ff       	callq  400c30 <puts@plt>
  401b5c:	eb 97                	jmp    401af5 <notify_server+0xe2>
  401b5e:	48 89 ee             	mov    %rbp,%rsi
  401b61:	48 8d 3d 78 16 00 00 	lea    0x1678(%rip),%rdi        # 4031e0 <_IO_stdin_used+0x550>
  401b68:	b8 00 00 00 00       	mov    $0x0,%eax
  401b6d:	e8 ee f0 ff ff       	callq  400c60 <printf@plt>
  401b72:	48 8b 35 c7 25 20 00 	mov    0x2025c7(%rip),%rsi        # 604140 <user_id>
  401b79:	48 8d 3d 1c 15 00 00 	lea    0x151c(%rip),%rdi        # 40309c <_IO_stdin_used+0x40c>
  401b80:	b8 00 00 00 00       	mov    $0x0,%eax
  401b85:	e8 d6 f0 ff ff       	callq  400c60 <printf@plt>
  401b8a:	48 8b 35 bf 25 20 00 	mov    0x2025bf(%rip),%rsi        # 604150 <course>
  401b91:	48 8d 3d 11 15 00 00 	lea    0x1511(%rip),%rdi        # 4030a9 <_IO_stdin_used+0x419>
  401b98:	b8 00 00 00 00       	mov    $0x0,%eax
  401b9d:	e8 be f0 ff ff       	callq  400c60 <printf@plt>
  401ba2:	48 8b 35 9f 25 20 00 	mov    0x20259f(%rip),%rsi        # 604148 <lab>
  401ba9:	48 8d 3d 05 15 00 00 	lea    0x1505(%rip),%rdi        # 4030b5 <_IO_stdin_used+0x425>
  401bb0:	b8 00 00 00 00       	mov    $0x0,%eax
  401bb5:	e8 a6 f0 ff ff       	callq  400c60 <printf@plt>
  401bba:	48 8d b4 24 00 20 00 	lea    0x2000(%rsp),%rsi
  401bc1:	00 
  401bc2:	48 8d 3d f5 14 00 00 	lea    0x14f5(%rip),%rdi        # 4030be <_IO_stdin_used+0x42e>
  401bc9:	b8 00 00 00 00       	mov    $0x0,%eax
  401bce:	e8 8d f0 ff ff       	callq  400c60 <printf@plt>
  401bd3:	e9 1d ff ff ff       	jmpq   401af5 <notify_server+0xe2>

0000000000401bd8 <validate>:
  401bd8:	53                   	push   %rbx
  401bd9:	89 fb                	mov    %edi,%ebx
  401bdb:	83 3d 26 29 20 00 00 	cmpl   $0x0,0x202926(%rip)        # 604508 <is_checker>
  401be2:	74 68                	je     401c4c <validate+0x74>
  401be4:	39 3d 12 29 20 00    	cmp    %edi,0x202912(%rip)        # 6044fc <vlevel>
  401bea:	75 2d                	jne    401c19 <validate+0x41>
  401bec:	8b 35 06 29 20 00    	mov    0x202906(%rip),%esi        # 6044f8 <check_level>
  401bf2:	39 f7                	cmp    %esi,%edi
  401bf4:	75 39                	jne    401c2f <validate+0x57>
  401bf6:	0f be 35 2b 35 20 00 	movsbl 0x20352b(%rip),%esi        # 605128 <target_prefix>
  401bfd:	48 8d 0d 1c 29 20 00 	lea    0x20291c(%rip),%rcx        # 604520 <gets_buf>
  401c04:	89 fa                	mov    %edi,%edx
  401c06:	48 8d 3d db 14 00 00 	lea    0x14db(%rip),%rdi        # 4030e8 <_IO_stdin_used+0x458>
  401c0d:	b8 00 00 00 00       	mov    $0x0,%eax
  401c12:	e8 49 f0 ff ff       	callq  400c60 <printf@plt>
  401c17:	5b                   	pop    %rbx
  401c18:	c3                   	retq   
  401c19:	48 8d 3d aa 14 00 00 	lea    0x14aa(%rip),%rdi        # 4030ca <_IO_stdin_used+0x43a>
  401c20:	e8 0b f0 ff ff       	callq  400c30 <puts@plt>
  401c25:	b8 00 00 00 00       	mov    $0x0,%eax
  401c2a:	e8 5f fd ff ff       	callq  40198e <check_fail>
  401c2f:	89 fa                	mov    %edi,%edx
  401c31:	48 8d 3d d0 15 00 00 	lea    0x15d0(%rip),%rdi        # 403208 <_IO_stdin_used+0x578>
  401c38:	b8 00 00 00 00       	mov    $0x0,%eax
  401c3d:	e8 1e f0 ff ff       	callq  400c60 <printf@plt>
  401c42:	b8 00 00 00 00       	mov    $0x0,%eax
  401c47:	e8 42 fd ff ff       	callq  40198e <check_fail>
  401c4c:	3b 3d aa 28 20 00    	cmp    0x2028aa(%rip),%edi        # 6044fc <vlevel>
  401c52:	74 1a                	je     401c6e <validate+0x96>
  401c54:	48 8d 3d 6f 14 00 00 	lea    0x146f(%rip),%rdi        # 4030ca <_IO_stdin_used+0x43a>
  401c5b:	e8 d0 ef ff ff       	callq  400c30 <puts@plt>
  401c60:	89 de                	mov    %ebx,%esi
  401c62:	bf 00 00 00 00       	mov    $0x0,%edi
  401c67:	e8 a7 fd ff ff       	callq  401a13 <notify_server>
  401c6c:	eb a9                	jmp    401c17 <validate+0x3f>
  401c6e:	0f be 15 b3 34 20 00 	movsbl 0x2034b3(%rip),%edx        # 605128 <target_prefix>
  401c75:	89 fe                	mov    %edi,%esi
  401c77:	48 8d 3d b2 15 00 00 	lea    0x15b2(%rip),%rdi        # 403230 <_IO_stdin_used+0x5a0>
  401c7e:	b8 00 00 00 00       	mov    $0x0,%eax
  401c83:	e8 d8 ef ff ff       	callq  400c60 <printf@plt>
  401c88:	89 de                	mov    %ebx,%esi
  401c8a:	bf 01 00 00 00       	mov    $0x1,%edi
  401c8f:	e8 7f fd ff ff       	callq  401a13 <notify_server>
  401c94:	eb 81                	jmp    401c17 <validate+0x3f>

0000000000401c96 <fail>:
  401c96:	48 83 ec 08          	sub    $0x8,%rsp
  401c9a:	83 3d 67 28 20 00 00 	cmpl   $0x0,0x202867(%rip)        # 604508 <is_checker>
  401ca1:	75 11                	jne    401cb4 <fail+0x1e>
  401ca3:	89 fe                	mov    %edi,%esi
  401ca5:	bf 00 00 00 00       	mov    $0x0,%edi
  401caa:	e8 64 fd ff ff       	callq  401a13 <notify_server>
  401caf:	48 83 c4 08          	add    $0x8,%rsp
  401cb3:	c3                   	retq   
  401cb4:	b8 00 00 00 00       	mov    $0x0,%eax
  401cb9:	e8 d0 fc ff ff       	callq  40198e <check_fail>

0000000000401cbe <bushandler>:
  401cbe:	48 83 ec 08          	sub    $0x8,%rsp
  401cc2:	83 3d 3f 28 20 00 00 	cmpl   $0x0,0x20283f(%rip)        # 604508 <is_checker>
  401cc9:	74 16                	je     401ce1 <bushandler+0x23>
  401ccb:	48 8d 3d 2b 14 00 00 	lea    0x142b(%rip),%rdi        # 4030fd <_IO_stdin_used+0x46d>
  401cd2:	e8 59 ef ff ff       	callq  400c30 <puts@plt>
  401cd7:	b8 00 00 00 00       	mov    $0x0,%eax
  401cdc:	e8 ad fc ff ff       	callq  40198e <check_fail>
  401ce1:	48 8d 3d 80 15 00 00 	lea    0x1580(%rip),%rdi        # 403268 <_IO_stdin_used+0x5d8>
  401ce8:	e8 43 ef ff ff       	callq  400c30 <puts@plt>
  401ced:	48 8d 3d 13 14 00 00 	lea    0x1413(%rip),%rdi        # 403107 <_IO_stdin_used+0x477>
  401cf4:	e8 37 ef ff ff       	callq  400c30 <puts@plt>
  401cf9:	be 00 00 00 00       	mov    $0x0,%esi
  401cfe:	bf 00 00 00 00       	mov    $0x0,%edi
  401d03:	e8 0b fd ff ff       	callq  401a13 <notify_server>
  401d08:	bf 01 00 00 00       	mov    $0x1,%edi
  401d0d:	e8 9e f0 ff ff       	callq  400db0 <exit@plt>

0000000000401d12 <seghandler>:
  401d12:	48 83 ec 08          	sub    $0x8,%rsp
  401d16:	83 3d eb 27 20 00 00 	cmpl   $0x0,0x2027eb(%rip)        # 604508 <is_checker>
  401d1d:	74 16                	je     401d35 <seghandler+0x23>
  401d1f:	48 8d 3d f7 13 00 00 	lea    0x13f7(%rip),%rdi        # 40311d <_IO_stdin_used+0x48d>
  401d26:	e8 05 ef ff ff       	callq  400c30 <puts@plt>
  401d2b:	b8 00 00 00 00       	mov    $0x0,%eax
  401d30:	e8 59 fc ff ff       	callq  40198e <check_fail>
  401d35:	48 8d 3d 4c 15 00 00 	lea    0x154c(%rip),%rdi        # 403288 <_IO_stdin_used+0x5f8>
  401d3c:	e8 ef ee ff ff       	callq  400c30 <puts@plt>
  401d41:	48 8d 3d bf 13 00 00 	lea    0x13bf(%rip),%rdi        # 403107 <_IO_stdin_used+0x477>
  401d48:	e8 e3 ee ff ff       	callq  400c30 <puts@plt>
  401d4d:	be 00 00 00 00       	mov    $0x0,%esi
  401d52:	bf 00 00 00 00       	mov    $0x0,%edi
  401d57:	e8 b7 fc ff ff       	callq  401a13 <notify_server>
  401d5c:	bf 01 00 00 00       	mov    $0x1,%edi
  401d61:	e8 4a f0 ff ff       	callq  400db0 <exit@plt>

0000000000401d66 <illegalhandler>:
  401d66:	48 83 ec 08          	sub    $0x8,%rsp
  401d6a:	83 3d 97 27 20 00 00 	cmpl   $0x0,0x202797(%rip)        # 604508 <is_checker>
  401d71:	74 16                	je     401d89 <illegalhandler+0x23>
  401d73:	48 8d 3d b6 13 00 00 	lea    0x13b6(%rip),%rdi        # 403130 <_IO_stdin_used+0x4a0>
  401d7a:	e8 b1 ee ff ff       	callq  400c30 <puts@plt>
  401d7f:	b8 00 00 00 00       	mov    $0x0,%eax
  401d84:	e8 05 fc ff ff       	callq  40198e <check_fail>
  401d89:	48 8d 3d 20 15 00 00 	lea    0x1520(%rip),%rdi        # 4032b0 <_IO_stdin_used+0x620>
  401d90:	e8 9b ee ff ff       	callq  400c30 <puts@plt>
  401d95:	48 8d 3d 6b 13 00 00 	lea    0x136b(%rip),%rdi        # 403107 <_IO_stdin_used+0x477>
  401d9c:	e8 8f ee ff ff       	callq  400c30 <puts@plt>
  401da1:	be 00 00 00 00       	mov    $0x0,%esi
  401da6:	bf 00 00 00 00       	mov    $0x0,%edi
  401dab:	e8 63 fc ff ff       	callq  401a13 <notify_server>
  401db0:	bf 01 00 00 00       	mov    $0x1,%edi
  401db5:	e8 f6 ef ff ff       	callq  400db0 <exit@plt>

0000000000401dba <sigalrmhandler>:
  401dba:	48 83 ec 08          	sub    $0x8,%rsp
  401dbe:	83 3d 43 27 20 00 00 	cmpl   $0x0,0x202743(%rip)        # 604508 <is_checker>
  401dc5:	74 16                	je     401ddd <sigalrmhandler+0x23>
  401dc7:	48 8d 3d 76 13 00 00 	lea    0x1376(%rip),%rdi        # 403144 <_IO_stdin_used+0x4b4>
  401dce:	e8 5d ee ff ff       	callq  400c30 <puts@plt>
  401dd3:	b8 00 00 00 00       	mov    $0x0,%eax
  401dd8:	e8 b1 fb ff ff       	callq  40198e <check_fail>
  401ddd:	be 05 00 00 00       	mov    $0x5,%esi
  401de2:	48 8d 3d f7 14 00 00 	lea    0x14f7(%rip),%rdi        # 4032e0 <_IO_stdin_used+0x650>
  401de9:	b8 00 00 00 00       	mov    $0x0,%eax
  401dee:	e8 6d ee ff ff       	callq  400c60 <printf@plt>
  401df3:	be 00 00 00 00       	mov    $0x0,%esi
  401df8:	bf 00 00 00 00       	mov    $0x0,%edi
  401dfd:	e8 11 fc ff ff       	callq  401a13 <notify_server>
  401e02:	bf 01 00 00 00       	mov    $0x1,%edi
  401e07:	e8 a4 ef ff ff       	callq  400db0 <exit@plt>

0000000000401e0c <launch>:
  401e0c:	55                   	push   %rbp
  401e0d:	48 89 e5             	mov    %rsp,%rbp
  401e10:	48 89 fa             	mov    %rdi,%rdx
  401e13:	48 8d 47 1e          	lea    0x1e(%rdi),%rax
  401e17:	48 83 e0 f0          	and    $0xfffffffffffffff0,%rax
  401e1b:	48 29 c4             	sub    %rax,%rsp
  401e1e:	48 8d 7c 24 0f       	lea    0xf(%rsp),%rdi
  401e23:	48 83 e7 f0          	and    $0xfffffffffffffff0,%rdi
  401e27:	be f4 00 00 00       	mov    $0xf4,%esi
  401e2c:	e8 3f ee ff ff       	callq  400c70 <memset@plt>
  401e31:	48 8b 05 68 26 20 00 	mov    0x202668(%rip),%rax        # 6044a0 <stdin@@GLIBC_2.2.5>
  401e38:	48 39 05 b1 26 20 00 	cmp    %rax,0x2026b1(%rip)        # 6044f0 <infile>
  401e3f:	74 2b                	je     401e6c <launch+0x60>
  401e41:	c7 05 b1 26 20 00 00 	movl   $0x0,0x2026b1(%rip)        # 6044fc <vlevel>
  401e48:	00 00 00 
  401e4b:	b8 00 00 00 00       	mov    $0x0,%eax
  401e50:	e8 a3 fa ff ff       	callq  4018f8 <test>
  401e55:	83 3d ac 26 20 00 00 	cmpl   $0x0,0x2026ac(%rip)        # 604508 <is_checker>
  401e5c:	75 21                	jne    401e7f <launch+0x73>
  401e5e:	48 8d 3d ff 12 00 00 	lea    0x12ff(%rip),%rdi        # 403164 <_IO_stdin_used+0x4d4>
  401e65:	e8 c6 ed ff ff       	callq  400c30 <puts@plt>
  401e6a:	c9                   	leaveq 
  401e6b:	c3                   	retq   
  401e6c:	48 8d 3d d9 12 00 00 	lea    0x12d9(%rip),%rdi        # 40314c <_IO_stdin_used+0x4bc>
  401e73:	b8 00 00 00 00       	mov    $0x0,%eax
  401e78:	e8 e3 ed ff ff       	callq  400c60 <printf@plt>
  401e7d:	eb c2                	jmp    401e41 <launch+0x35>
  401e7f:	48 8d 3d d3 12 00 00 	lea    0x12d3(%rip),%rdi        # 403159 <_IO_stdin_used+0x4c9>
  401e86:	e8 a5 ed ff ff       	callq  400c30 <puts@plt>
  401e8b:	b8 00 00 00 00       	mov    $0x0,%eax
  401e90:	e8 f9 fa ff ff       	callq  40198e <check_fail>

0000000000401e95 <stable_launch>:
  401e95:	53                   	push   %rbx
  401e96:	48 89 3d 4b 26 20 00 	mov    %rdi,0x20264b(%rip)        # 6044e8 <global_offset>
  401e9d:	41 b9 00 00 00 00    	mov    $0x0,%r9d
  401ea3:	41 b8 00 00 00 00    	mov    $0x0,%r8d
  401ea9:	b9 32 01 00 00       	mov    $0x132,%ecx
  401eae:	ba 07 00 00 00       	mov    $0x7,%edx
  401eb3:	be 00 00 10 00       	mov    $0x100000,%esi
  401eb8:	bf 00 60 58 55       	mov    $0x55586000,%edi
  401ebd:	e8 8e ed ff ff       	callq  400c50 <mmap@plt>
  401ec2:	48 89 c3             	mov    %rax,%rbx
  401ec5:	48 3d 00 60 58 55    	cmp    $0x55586000,%rax
  401ecb:	75 43                	jne    401f10 <stable_launch+0x7b>
  401ecd:	48 8d 90 f8 ff 0f 00 	lea    0xffff8(%rax),%rdx
  401ed4:	48 89 15 55 32 20 00 	mov    %rdx,0x203255(%rip)        # 605130 <stack_top>
  401edb:	48 89 e0             	mov    %rsp,%rax
  401ede:	48 89 d4             	mov    %rdx,%rsp
  401ee1:	48 89 c2             	mov    %rax,%rdx
  401ee4:	48 89 15 f5 25 20 00 	mov    %rdx,0x2025f5(%rip)        # 6044e0 <global_save_stack>
  401eeb:	48 8b 3d f6 25 20 00 	mov    0x2025f6(%rip),%rdi        # 6044e8 <global_offset>
  401ef2:	e8 15 ff ff ff       	callq  401e0c <launch>
  401ef7:	48 8b 05 e2 25 20 00 	mov    0x2025e2(%rip),%rax        # 6044e0 <global_save_stack>
  401efe:	48 89 c4             	mov    %rax,%rsp
  401f01:	be 00 00 10 00       	mov    $0x100000,%esi
  401f06:	48 89 df             	mov    %rbx,%rdi
  401f09:	e8 32 ee ff ff       	callq  400d40 <munmap@plt>
  401f0e:	5b                   	pop    %rbx
  401f0f:	c3                   	retq   
  401f10:	be 00 00 10 00       	mov    $0x100000,%esi
  401f15:	48 89 c7             	mov    %rax,%rdi
  401f18:	e8 23 ee ff ff       	callq  400d40 <munmap@plt>
  401f1d:	ba 00 60 58 55       	mov    $0x55586000,%edx
  401f22:	48 8d 35 ef 13 00 00 	lea    0x13ef(%rip),%rsi        # 403318 <_IO_stdin_used+0x688>
  401f29:	48 8b 3d 90 25 20 00 	mov    0x202590(%rip),%rdi        # 6044c0 <stderr@@GLIBC_2.2.5>
  401f30:	b8 00 00 00 00       	mov    $0x0,%eax
  401f35:	e8 96 ed ff ff       	callq  400cd0 <fprintf@plt>
  401f3a:	bf 01 00 00 00       	mov    $0x1,%edi
  401f3f:	e8 6c ee ff ff       	callq  400db0 <exit@plt>

0000000000401f44 <rio_readinitb>:
  401f44:	89 37                	mov    %esi,(%rdi)
  401f46:	c7 47 04 00 00 00 00 	movl   $0x0,0x4(%rdi)
  401f4d:	48 8d 47 10          	lea    0x10(%rdi),%rax
  401f51:	48 89 47 08          	mov    %rax,0x8(%rdi)
  401f55:	c3                   	retq   

0000000000401f56 <sigalrm_handler>:
  401f56:	48 83 ec 08          	sub    $0x8,%rsp
  401f5a:	ba 00 00 00 00       	mov    $0x0,%edx
  401f5f:	48 8d 35 ea 13 00 00 	lea    0x13ea(%rip),%rsi        # 403350 <trans_char+0x10>
  401f66:	48 8b 3d 53 25 20 00 	mov    0x202553(%rip),%rdi        # 6044c0 <stderr@@GLIBC_2.2.5>
  401f6d:	b8 00 00 00 00       	mov    $0x0,%eax
  401f72:	e8 59 ed ff ff       	callq  400cd0 <fprintf@plt>
  401f77:	bf 01 00 00 00       	mov    $0x1,%edi
  401f7c:	e8 2f ee ff ff       	callq  400db0 <exit@plt>

0000000000401f81 <urlencode>:
  401f81:	41 54                	push   %r12
  401f83:	55                   	push   %rbp
  401f84:	53                   	push   %rbx
  401f85:	48 83 ec 10          	sub    $0x10,%rsp
  401f89:	48 89 fb             	mov    %rdi,%rbx
  401f8c:	48 89 f5             	mov    %rsi,%rbp
  401f8f:	b8 00 00 00 00       	mov    $0x0,%eax
  401f94:	48 c7 c1 ff ff ff ff 	mov    $0xffffffffffffffff,%rcx
  401f9b:	f2 ae                	repnz scas %es:(%rdi),%al
  401f9d:	48 f7 d1             	not    %rcx
  401fa0:	8d 41 ff             	lea    -0x1(%rcx),%eax
  401fa3:	eb 0e                	jmp    401fb3 <urlencode+0x32>
  401fa5:	88 55 00             	mov    %dl,0x0(%rbp)
  401fa8:	48 8d 6d 01          	lea    0x1(%rbp),%rbp
  401fac:	48 83 c3 01          	add    $0x1,%rbx
  401fb0:	44 89 e0             	mov    %r12d,%eax
  401fb3:	44 8d 60 ff          	lea    -0x1(%rax),%r12d
  401fb7:	85 c0                	test   %eax,%eax
  401fb9:	0f 84 95 00 00 00    	je     402054 <urlencode+0xd3>
  401fbf:	0f b6 13             	movzbl (%rbx),%edx
  401fc2:	80 fa 2a             	cmp    $0x2a,%dl
  401fc5:	0f 94 c1             	sete   %cl
  401fc8:	80 fa 2d             	cmp    $0x2d,%dl
  401fcb:	0f 94 c0             	sete   %al
  401fce:	08 c1                	or     %al,%cl
  401fd0:	75 d3                	jne    401fa5 <urlencode+0x24>
  401fd2:	80 fa 2e             	cmp    $0x2e,%dl
  401fd5:	74 ce                	je     401fa5 <urlencode+0x24>
  401fd7:	80 fa 5f             	cmp    $0x5f,%dl
  401fda:	74 c9                	je     401fa5 <urlencode+0x24>
  401fdc:	8d 42 d0             	lea    -0x30(%rdx),%eax
  401fdf:	3c 09                	cmp    $0x9,%al
  401fe1:	76 c2                	jbe    401fa5 <urlencode+0x24>
  401fe3:	8d 42 bf             	lea    -0x41(%rdx),%eax
  401fe6:	3c 19                	cmp    $0x19,%al
  401fe8:	76 bb                	jbe    401fa5 <urlencode+0x24>
  401fea:	8d 42 9f             	lea    -0x61(%rdx),%eax
  401fed:	3c 19                	cmp    $0x19,%al
  401fef:	76 b4                	jbe    401fa5 <urlencode+0x24>
  401ff1:	80 fa 20             	cmp    $0x20,%dl
  401ff4:	74 4c                	je     402042 <urlencode+0xc1>
  401ff6:	8d 42 e0             	lea    -0x20(%rdx),%eax
  401ff9:	3c 5f                	cmp    $0x5f,%al
  401ffb:	0f 96 c1             	setbe  %cl
  401ffe:	80 fa 09             	cmp    $0x9,%dl
  402001:	0f 94 c0             	sete   %al
  402004:	08 c1                	or     %al,%cl
  402006:	74 47                	je     40204f <urlencode+0xce>
  402008:	0f b6 d2             	movzbl %dl,%edx
  40200b:	48 8d 7c 24 08       	lea    0x8(%rsp),%rdi
  402010:	48 8d 35 d1 13 00 00 	lea    0x13d1(%rip),%rsi        # 4033e8 <trans_char+0xa8>
  402017:	b8 00 00 00 00       	mov    $0x0,%eax
  40201c:	e8 7f ed ff ff       	callq  400da0 <sprintf@plt>
  402021:	0f b6 44 24 08       	movzbl 0x8(%rsp),%eax
  402026:	88 45 00             	mov    %al,0x0(%rbp)
  402029:	0f b6 44 24 09       	movzbl 0x9(%rsp),%eax
  40202e:	88 45 01             	mov    %al,0x1(%rbp)
  402031:	0f b6 44 24 0a       	movzbl 0xa(%rsp),%eax
  402036:	88 45 02             	mov    %al,0x2(%rbp)
  402039:	48 8d 6d 03          	lea    0x3(%rbp),%rbp
  40203d:	e9 6a ff ff ff       	jmpq   401fac <urlencode+0x2b>
  402042:	c6 45 00 2b          	movb   $0x2b,0x0(%rbp)
  402046:	48 8d 6d 01          	lea    0x1(%rbp),%rbp
  40204a:	e9 5d ff ff ff       	jmpq   401fac <urlencode+0x2b>
  40204f:	b8 ff ff ff ff       	mov    $0xffffffff,%eax
  402054:	48 83 c4 10          	add    $0x10,%rsp
  402058:	5b                   	pop    %rbx
  402059:	5d                   	pop    %rbp
  40205a:	41 5c                	pop    %r12
  40205c:	c3                   	retq   

000000000040205d <rio_writen>:
  40205d:	41 55                	push   %r13
  40205f:	41 54                	push   %r12
  402061:	55                   	push   %rbp
  402062:	53                   	push   %rbx
  402063:	48 83 ec 08          	sub    $0x8,%rsp
  402067:	41 89 fc             	mov    %edi,%r12d
  40206a:	49 89 d5             	mov    %rdx,%r13
  40206d:	48 89 f5             	mov    %rsi,%rbp
  402070:	48 89 d3             	mov    %rdx,%rbx
  402073:	eb 06                	jmp    40207b <rio_writen+0x1e>
  402075:	48 29 c3             	sub    %rax,%rbx
  402078:	48 01 c5             	add    %rax,%rbp
  40207b:	48 85 db             	test   %rbx,%rbx
  40207e:	74 24                	je     4020a4 <rio_writen+0x47>
  402080:	48 89 da             	mov    %rbx,%rdx
  402083:	48 89 ee             	mov    %rbp,%rsi
  402086:	44 89 e7             	mov    %r12d,%edi
  402089:	e8 b2 eb ff ff       	callq  400c40 <write@plt>
  40208e:	48 85 c0             	test   %rax,%rax
  402091:	7f e2                	jg     402075 <rio_writen+0x18>
  402093:	e8 58 eb ff ff       	callq  400bf0 <__errno_location@plt>
  402098:	83 38 04             	cmpl   $0x4,(%rax)
  40209b:	75 15                	jne    4020b2 <rio_writen+0x55>
  40209d:	b8 00 00 00 00       	mov    $0x0,%eax
  4020a2:	eb d1                	jmp    402075 <rio_writen+0x18>
  4020a4:	4c 89 e8             	mov    %r13,%rax
  4020a7:	48 83 c4 08          	add    $0x8,%rsp
  4020ab:	5b                   	pop    %rbx
  4020ac:	5d                   	pop    %rbp
  4020ad:	41 5c                	pop    %r12
  4020af:	41 5d                	pop    %r13
  4020b1:	c3                   	retq   
  4020b2:	48 c7 c0 ff ff ff ff 	mov    $0xffffffffffffffff,%rax
  4020b9:	eb ec                	jmp    4020a7 <rio_writen+0x4a>

00000000004020bb <rio_read>:
  4020bb:	41 55                	push   %r13
  4020bd:	41 54                	push   %r12
  4020bf:	55                   	push   %rbp
  4020c0:	53                   	push   %rbx
  4020c1:	48 83 ec 08          	sub    $0x8,%rsp
  4020c5:	48 89 fb             	mov    %rdi,%rbx
  4020c8:	49 89 f5             	mov    %rsi,%r13
  4020cb:	49 89 d4             	mov    %rdx,%r12
  4020ce:	eb 0a                	jmp    4020da <rio_read+0x1f>
  4020d0:	e8 1b eb ff ff       	callq  400bf0 <__errno_location@plt>
  4020d5:	83 38 04             	cmpl   $0x4,(%rax)
  4020d8:	75 5c                	jne    402136 <rio_read+0x7b>
  4020da:	8b 6b 04             	mov    0x4(%rbx),%ebp
  4020dd:	85 ed                	test   %ebp,%ebp
  4020df:	7f 24                	jg     402105 <rio_read+0x4a>
  4020e1:	48 8d 6b 10          	lea    0x10(%rbx),%rbp
  4020e5:	ba 00 20 00 00       	mov    $0x2000,%edx
  4020ea:	48 89 ee             	mov    %rbp,%rsi
  4020ed:	8b 3b                	mov    (%rbx),%edi
  4020ef:	e8 ac eb ff ff       	callq  400ca0 <read@plt>
  4020f4:	89 43 04             	mov    %eax,0x4(%rbx)
  4020f7:	85 c0                	test   %eax,%eax
  4020f9:	78 d5                	js     4020d0 <rio_read+0x15>
  4020fb:	85 c0                	test   %eax,%eax
  4020fd:	74 40                	je     40213f <rio_read+0x84>
  4020ff:	48 89 6b 08          	mov    %rbp,0x8(%rbx)
  402103:	eb d5                	jmp    4020da <rio_read+0x1f>
  402105:	89 e8                	mov    %ebp,%eax
  402107:	49 39 c4             	cmp    %rax,%r12
  40210a:	77 03                	ja     40210f <rio_read+0x54>
  40210c:	44 89 e5             	mov    %r12d,%ebp
  40210f:	4c 63 e5             	movslq %ebp,%r12
  402112:	48 8b 73 08          	mov    0x8(%rbx),%rsi
  402116:	4c 89 e2             	mov    %r12,%rdx
  402119:	4c 89 ef             	mov    %r13,%rdi
  40211c:	e8 cf eb ff ff       	callq  400cf0 <memcpy@plt>
  402121:	4c 01 63 08          	add    %r12,0x8(%rbx)
  402125:	29 6b 04             	sub    %ebp,0x4(%rbx)
  402128:	4c 89 e0             	mov    %r12,%rax
  40212b:	48 83 c4 08          	add    $0x8,%rsp
  40212f:	5b                   	pop    %rbx
  402130:	5d                   	pop    %rbp
  402131:	41 5c                	pop    %r12
  402133:	41 5d                	pop    %r13
  402135:	c3                   	retq   
  402136:	48 c7 c0 ff ff ff ff 	mov    $0xffffffffffffffff,%rax
  40213d:	eb ec                	jmp    40212b <rio_read+0x70>
  40213f:	b8 00 00 00 00       	mov    $0x0,%eax
  402144:	eb e5                	jmp    40212b <rio_read+0x70>

0000000000402146 <rio_readlineb>:
  402146:	41 55                	push   %r13
  402148:	41 54                	push   %r12
  40214a:	55                   	push   %rbp
  40214b:	53                   	push   %rbx
  40214c:	48 83 ec 18          	sub    $0x18,%rsp
  402150:	49 89 fd             	mov    %rdi,%r13
  402153:	49 89 d4             	mov    %rdx,%r12
  402156:	48 89 f5             	mov    %rsi,%rbp
  402159:	bb 01 00 00 00       	mov    $0x1,%ebx
  40215e:	4c 39 e3             	cmp    %r12,%rbx
  402161:	73 47                	jae    4021aa <rio_readlineb+0x64>
  402163:	48 8d 74 24 0f       	lea    0xf(%rsp),%rsi
  402168:	ba 01 00 00 00       	mov    $0x1,%edx
  40216d:	4c 89 ef             	mov    %r13,%rdi
  402170:	e8 46 ff ff ff       	callq  4020bb <rio_read>
  402175:	83 f8 01             	cmp    $0x1,%eax
  402178:	75 1c                	jne    402196 <rio_readlineb+0x50>
  40217a:	48 8d 45 01          	lea    0x1(%rbp),%rax
  40217e:	0f b6 54 24 0f       	movzbl 0xf(%rsp),%edx
  402183:	88 55 00             	mov    %dl,0x0(%rbp)
  402186:	80 7c 24 0f 0a       	cmpb   $0xa,0xf(%rsp)
  40218b:	74 1a                	je     4021a7 <rio_readlineb+0x61>
  40218d:	48 83 c3 01          	add    $0x1,%rbx
  402191:	48 89 c5             	mov    %rax,%rbp
  402194:	eb c8                	jmp    40215e <rio_readlineb+0x18>
  402196:	85 c0                	test   %eax,%eax
  402198:	75 22                	jne    4021bc <rio_readlineb+0x76>
  40219a:	48 83 fb 01          	cmp    $0x1,%rbx
  40219e:	75 0a                	jne    4021aa <rio_readlineb+0x64>
  4021a0:	b8 00 00 00 00       	mov    $0x0,%eax
  4021a5:	eb 0a                	jmp    4021b1 <rio_readlineb+0x6b>
  4021a7:	48 89 c5             	mov    %rax,%rbp
  4021aa:	c6 45 00 00          	movb   $0x0,0x0(%rbp)
  4021ae:	48 89 d8             	mov    %rbx,%rax
  4021b1:	48 83 c4 18          	add    $0x18,%rsp
  4021b5:	5b                   	pop    %rbx
  4021b6:	5d                   	pop    %rbp
  4021b7:	41 5c                	pop    %r12
  4021b9:	41 5d                	pop    %r13
  4021bb:	c3                   	retq   
  4021bc:	48 c7 c0 ff ff ff ff 	mov    $0xffffffffffffffff,%rax
  4021c3:	eb ec                	jmp    4021b1 <rio_readlineb+0x6b>

00000000004021c5 <submitr>:
  4021c5:	41 57                	push   %r15
  4021c7:	41 56                	push   %r14
  4021c9:	41 55                	push   %r13
  4021cb:	41 54                	push   %r12
  4021cd:	55                   	push   %rbp
  4021ce:	53                   	push   %rbx
  4021cf:	48 81 ec 58 a0 00 00 	sub    $0xa058,%rsp
  4021d6:	49 89 fd             	mov    %rdi,%r13
  4021d9:	89 74 24 14          	mov    %esi,0x14(%rsp)
  4021dd:	49 89 d7             	mov    %rdx,%r15
  4021e0:	48 89 4c 24 08       	mov    %rcx,0x8(%rsp)
  4021e5:	4c 89 44 24 18       	mov    %r8,0x18(%rsp)
  4021ea:	4d 89 ce             	mov    %r9,%r14
  4021ed:	48 8b 9c 24 90 a0 00 	mov    0xa090(%rsp),%rbx
  4021f4:	00 
  4021f5:	c7 84 24 2c 20 00 00 	movl   $0x0,0x202c(%rsp)
  4021fc:	00 00 00 00 
  402200:	ba 00 00 00 00       	mov    $0x0,%edx
  402205:	be 01 00 00 00       	mov    $0x1,%esi
  40220a:	bf 02 00 00 00       	mov    $0x2,%edi
  40220f:	e8 bc eb ff ff       	callq  400dd0 <socket@plt>
  402214:	85 c0                	test   %eax,%eax
  402216:	0f 88 ca 01 00 00    	js     4023e6 <submitr+0x221>
  40221c:	89 c5                	mov    %eax,%ebp
  40221e:	4c 89 ef             	mov    %r13,%rdi
  402221:	e8 9a ea ff ff       	callq  400cc0 <gethostbyname@plt>
  402226:	48 85 c0             	test   %rax,%rax
  402229:	0f 84 05 02 00 00    	je     402434 <submitr+0x26f>
  40222f:	4c 8d a4 24 40 a0 00 	lea    0xa040(%rsp),%r12
  402236:	00 
  402237:	48 c7 84 24 40 a0 00 	movq   $0x0,0xa040(%rsp)
  40223e:	00 00 00 00 00 
  402243:	48 c7 84 24 48 a0 00 	movq   $0x0,0xa048(%rsp)
  40224a:	00 00 00 00 00 
  40224f:	66 c7 84 24 40 a0 00 	movw   $0x2,0xa040(%rsp)
  402256:	00 02 00 
  402259:	48 8b 48 18          	mov    0x18(%rax),%rcx
  40225d:	48 63 50 14          	movslq 0x14(%rax),%rdx
  402261:	48 8d b4 24 44 a0 00 	lea    0xa044(%rsp),%rsi
  402268:	00 
  402269:	48 8b 39             	mov    (%rcx),%rdi
  40226c:	e8 df ea ff ff       	callq  400d50 <bcopy@plt>
  402271:	0f b7 44 24 14       	movzwl 0x14(%rsp),%eax
  402276:	66 c1 c8 08          	ror    $0x8,%ax
  40227a:	66 89 84 24 42 a0 00 	mov    %ax,0xa042(%rsp)
  402281:	00 
  402282:	ba 10 00 00 00       	mov    $0x10,%edx
  402287:	4c 89 e6             	mov    %r12,%rsi
  40228a:	89 ef                	mov    %ebp,%edi
  40228c:	e8 2f eb ff ff       	callq  400dc0 <connect@plt>
  402291:	85 c0                	test   %eax,%eax
  402293:	0f 88 02 02 00 00    	js     40249b <submitr+0x2d6>
  402299:	48 c7 c6 ff ff ff ff 	mov    $0xffffffffffffffff,%rsi
  4022a0:	b8 00 00 00 00       	mov    $0x0,%eax
  4022a5:	48 89 f1             	mov    %rsi,%rcx
  4022a8:	4c 89 f7             	mov    %r14,%rdi
  4022ab:	f2 ae                	repnz scas %es:(%rdi),%al
  4022ad:	48 f7 d1             	not    %rcx
  4022b0:	48 89 ca             	mov    %rcx,%rdx
  4022b3:	48 89 f1             	mov    %rsi,%rcx
  4022b6:	4c 89 ff             	mov    %r15,%rdi
  4022b9:	f2 ae                	repnz scas %es:(%rdi),%al
  4022bb:	48 f7 d1             	not    %rcx
  4022be:	49 89 c8             	mov    %rcx,%r8
  4022c1:	48 89 f1             	mov    %rsi,%rcx
  4022c4:	48 8b 7c 24 08       	mov    0x8(%rsp),%rdi
  4022c9:	f2 ae                	repnz scas %es:(%rdi),%al
  4022cb:	48 f7 d1             	not    %rcx
  4022ce:	4d 8d 44 08 fe       	lea    -0x2(%r8,%rcx,1),%r8
  4022d3:	48 89 f1             	mov    %rsi,%rcx
  4022d6:	48 8b 7c 24 18       	mov    0x18(%rsp),%rdi
  4022db:	f2 ae                	repnz scas %es:(%rdi),%al
  4022dd:	48 89 c8             	mov    %rcx,%rax
  4022e0:	48 f7 d0             	not    %rax
  4022e3:	49 8d 4c 00 ff       	lea    -0x1(%r8,%rax,1),%rcx
  4022e8:	48 8d 44 52 fd       	lea    -0x3(%rdx,%rdx,2),%rax
  4022ed:	48 8d 84 01 80 00 00 	lea    0x80(%rcx,%rax,1),%rax
  4022f4:	00 
  4022f5:	48 3d 00 20 00 00    	cmp    $0x2000,%rax
  4022fb:	0f 87 f3 01 00 00    	ja     4024f4 <submitr+0x32f>
  402301:	48 8d b4 24 30 40 00 	lea    0x4030(%rsp),%rsi
  402308:	00 
  402309:	b9 00 04 00 00       	mov    $0x400,%ecx
  40230e:	b8 00 00 00 00       	mov    $0x0,%eax
  402313:	48 89 f7             	mov    %rsi,%rdi
  402316:	f3 48 ab             	rep stos %rax,%es:(%rdi)
  402319:	4c 89 f7             	mov    %r14,%rdi
  40231c:	e8 60 fc ff ff       	callq  401f81 <urlencode>
  402321:	85 c0                	test   %eax,%eax
  402323:	0f 88 3d 02 00 00    	js     402566 <submitr+0x3a1>
  402329:	4c 8d a4 24 30 60 00 	lea    0x6030(%rsp),%r12
  402330:	00 
  402331:	4d 89 e9             	mov    %r13,%r9
  402334:	4c 8d 84 24 30 40 00 	lea    0x4030(%rsp),%r8
  40233b:	00 
  40233c:	4c 89 f9             	mov    %r15,%rcx
  40233f:	48 8b 54 24 08       	mov    0x8(%rsp),%rdx
  402344:	48 8d 35 2d 10 00 00 	lea    0x102d(%rip),%rsi        # 403378 <trans_char+0x38>
  40234b:	4c 89 e7             	mov    %r12,%rdi
  40234e:	b8 00 00 00 00       	mov    $0x0,%eax
  402353:	e8 48 ea ff ff       	callq  400da0 <sprintf@plt>
  402358:	b8 00 00 00 00       	mov    $0x0,%eax
  40235d:	48 c7 c1 ff ff ff ff 	mov    $0xffffffffffffffff,%rcx
  402364:	4c 89 e7             	mov    %r12,%rdi
  402367:	f2 ae                	repnz scas %es:(%rdi),%al
  402369:	48 f7 d1             	not    %rcx
  40236c:	48 8d 51 ff          	lea    -0x1(%rcx),%rdx
  402370:	4c 89 e6             	mov    %r12,%rsi
  402373:	89 ef                	mov    %ebp,%edi
  402375:	e8 e3 fc ff ff       	callq  40205d <rio_writen>
  40237a:	48 85 c0             	test   %rax,%rax
  40237d:	0f 88 6d 02 00 00    	js     4025f0 <submitr+0x42b>
  402383:	4c 8d a4 24 30 80 00 	lea    0x8030(%rsp),%r12
  40238a:	00 
  40238b:	89 ee                	mov    %ebp,%esi
  40238d:	4c 89 e7             	mov    %r12,%rdi
  402390:	e8 af fb ff ff       	callq  401f44 <rio_readinitb>
  402395:	48 8d b4 24 30 60 00 	lea    0x6030(%rsp),%rsi
  40239c:	00 
  40239d:	ba 00 20 00 00       	mov    $0x2000,%edx
  4023a2:	4c 89 e7             	mov    %r12,%rdi
  4023a5:	e8 9c fd ff ff       	callq  402146 <rio_readlineb>
  4023aa:	48 85 c0             	test   %rax,%rax
  4023ad:	0f 8e ab 02 00 00    	jle    40265e <submitr+0x499>
  4023b3:	48 8d 8c 24 2c 20 00 	lea    0x202c(%rsp),%rcx
  4023ba:	00 
  4023bb:	48 8d 94 24 30 20 00 	lea    0x2030(%rsp),%rdx
  4023c2:	00 
  4023c3:	48 8d bc 24 30 60 00 	lea    0x6030(%rsp),%rdi
  4023ca:	00 
  4023cb:	4c 8d 44 24 20       	lea    0x20(%rsp),%r8
  4023d0:	48 8d 35 18 10 00 00 	lea    0x1018(%rip),%rsi        # 4033ef <trans_char+0xaf>
  4023d7:	b8 00 00 00 00       	mov    $0x0,%eax
  4023dc:	e8 4f e9 ff ff       	callq  400d30 <__isoc99_sscanf@plt>
  4023e1:	e9 9f 03 00 00       	jmpq   402785 <submitr+0x5c0>
  4023e6:	48 b8 45 72 72 6f 72 	movabs $0x43203a726f727245,%rax
  4023ed:	3a 20 43 
  4023f0:	48 89 03             	mov    %rax,(%rbx)
  4023f3:	48 b8 6c 69 65 6e 74 	movabs $0x6e7520746e65696c,%rax
  4023fa:	20 75 6e 
  4023fd:	48 89 43 08          	mov    %rax,0x8(%rbx)
  402401:	48 b8 61 62 6c 65 20 	movabs $0x206f7420656c6261,%rax
  402408:	74 6f 20 
  40240b:	48 89 43 10          	mov    %rax,0x10(%rbx)
  40240f:	48 b8 63 72 65 61 74 	movabs $0x7320657461657263,%rax
  402416:	65 20 73 
  402419:	48 89 43 18          	mov    %rax,0x18(%rbx)
  40241d:	c7 43 20 6f 63 6b 65 	movl   $0x656b636f,0x20(%rbx)
  402424:	66 c7 43 24 74 00    	movw   $0x74,0x24(%rbx)
  40242a:	b8 ff ff ff ff       	mov    $0xffffffff,%eax
  40242f:	e9 18 03 00 00       	jmpq   40274c <submitr+0x587>
  402434:	48 b8 45 72 72 6f 72 	movabs $0x44203a726f727245,%rax
  40243b:	3a 20 44 
  40243e:	48 89 03             	mov    %rax,(%rbx)
  402441:	48 b8 4e 53 20 69 73 	movabs $0x6e7520736920534e,%rax
  402448:	20 75 6e 
  40244b:	48 89 43 08          	mov    %rax,0x8(%rbx)
  40244f:	48 b8 61 62 6c 65 20 	movabs $0x206f7420656c6261,%rax
  402456:	74 6f 20 
  402459:	48 89 43 10          	mov    %rax,0x10(%rbx)
  40245d:	48 b8 72 65 73 6f 6c 	movabs $0x2065766c6f736572,%rax
  402464:	76 65 20 
  402467:	48 89 43 18          	mov    %rax,0x18(%rbx)
  40246b:	48 b8 73 65 72 76 65 	movabs $0x6120726576726573,%rax
  402472:	72 20 61 
  402475:	48 89 43 20          	mov    %rax,0x20(%rbx)
  402479:	c7 43 28 64 64 72 65 	movl   $0x65726464,0x28(%rbx)
  402480:	66 c7 43 2c 73 73    	movw   $0x7373,0x2c(%rbx)
  402486:	c6 43 2e 00          	movb   $0x0,0x2e(%rbx)
  40248a:	89 ef                	mov    %ebp,%edi
  40248c:	e8 ff e7 ff ff       	callq  400c90 <close@plt>
  402491:	b8 ff ff ff ff       	mov    $0xffffffff,%eax
  402496:	e9 b1 02 00 00       	jmpq   40274c <submitr+0x587>
  40249b:	48 b8 45 72 72 6f 72 	movabs $0x55203a726f727245,%rax
  4024a2:	3a 20 55 
  4024a5:	48 89 03             	mov    %rax,(%rbx)
  4024a8:	48 b8 6e 61 62 6c 65 	movabs $0x6f7420656c62616e,%rax
  4024af:	20 74 6f 
  4024b2:	48 89 43 08          	mov    %rax,0x8(%rbx)
  4024b6:	48 b8 20 63 6f 6e 6e 	movabs $0x7463656e6e6f6320,%rax
  4024bd:	65 63 74 
  4024c0:	48 89 43 10          	mov    %rax,0x10(%rbx)
  4024c4:	48 b8 20 74 6f 20 74 	movabs $0x20656874206f7420,%rax
  4024cb:	68 65 20 
  4024ce:	48 89 43 18          	mov    %rax,0x18(%rbx)
  4024d2:	c7 43 20 73 65 72 76 	movl   $0x76726573,0x20(%rbx)
  4024d9:	66 c7 43 24 65 72    	movw   $0x7265,0x24(%rbx)
  4024df:	c6 43 26 00          	movb   $0x0,0x26(%rbx)
  4024e3:	89 ef                	mov    %ebp,%edi
  4024e5:	e8 a6 e7 ff ff       	callq  400c90 <close@plt>
  4024ea:	b8 ff ff ff ff       	mov    $0xffffffff,%eax
  4024ef:	e9 58 02 00 00       	jmpq   40274c <submitr+0x587>
  4024f4:	48 b8 45 72 72 6f 72 	movabs $0x52203a726f727245,%rax
  4024fb:	3a 20 52 
  4024fe:	48 89 03             	mov    %rax,(%rbx)
  402501:	48 b8 65 73 75 6c 74 	movabs $0x747320746c757365,%rax
  402508:	20 73 74 
  40250b:	48 89 43 08          	mov    %rax,0x8(%rbx)
  40250f:	48 b8 72 69 6e 67 20 	movabs $0x6f6f7420676e6972,%rax
  402516:	74 6f 6f 
  402519:	48 89 43 10          	mov    %rax,0x10(%rbx)
  40251d:	48 b8 20 6c 61 72 67 	movabs $0x202e656772616c20,%rax
  402524:	65 2e 20 
  402527:	48 89 43 18          	mov    %rax,0x18(%rbx)
  40252b:	48 b8 49 6e 63 72 65 	movabs $0x6573616572636e49,%rax
  402532:	61 73 65 
  402535:	48 89 43 20          	mov    %rax,0x20(%rbx)
  402539:	48 b8 20 53 55 42 4d 	movabs $0x5254494d42555320,%rax
  402540:	49 54 52 
  402543:	48 89 43 28          	mov    %rax,0x28(%rbx)
  402547:	48 b8 5f 4d 41 58 42 	movabs $0x46554258414d5f,%rax
  40254e:	55 46 00 
  402551:	48 89 43 30          	mov    %rax,0x30(%rbx)
  402555:	89 ef                	mov    %ebp,%edi
  402557:	e8 34 e7 ff ff       	callq  400c90 <close@plt>
  40255c:	b8 ff ff ff ff       	mov    $0xffffffff,%eax
  402561:	e9 e6 01 00 00       	jmpq   40274c <submitr+0x587>
  402566:	48 b8 45 72 72 6f 72 	movabs $0x52203a726f727245,%rax
  40256d:	3a 20 52 
  402570:	48 89 03             	mov    %rax,(%rbx)
  402573:	48 b8 65 73 75 6c 74 	movabs $0x747320746c757365,%rax
  40257a:	20 73 74 
  40257d:	48 89 43 08          	mov    %rax,0x8(%rbx)
  402581:	48 b8 72 69 6e 67 20 	movabs $0x6e6f6320676e6972,%rax
  402588:	63 6f 6e 
  40258b:	48 89 43 10          	mov    %rax,0x10(%rbx)
  40258f:	48 b8 74 61 69 6e 73 	movabs $0x6e6120736e696174,%rax
  402596:	20 61 6e 
  402599:	48 89 43 18          	mov    %rax,0x18(%rbx)
  40259d:	48 b8 20 69 6c 6c 65 	movabs $0x6c6167656c6c6920,%rax
  4025a4:	67 61 6c 
  4025a7:	48 89 43 20          	mov    %rax,0x20(%rbx)
  4025ab:	48 b8 20 6f 72 20 75 	movabs $0x72706e7520726f20,%rax
  4025b2:	6e 70 72 
  4025b5:	48 89 43 28          	mov    %rax,0x28(%rbx)
  4025b9:	48 b8 69 6e 74 61 62 	movabs $0x20656c6261746e69,%rax
  4025c0:	6c 65 20 
  4025c3:	48 89 43 30          	mov    %rax,0x30(%rbx)
  4025c7:	48 b8 63 68 61 72 61 	movabs $0x6574636172616863,%rax
  4025ce:	63 74 65 
  4025d1:	48 89 43 38          	mov    %rax,0x38(%rbx)
  4025d5:	66 c7 43 40 72 2e    	movw   $0x2e72,0x40(%rbx)
  4025db:	c6 43 42 00          	movb   $0x0,0x42(%rbx)
  4025df:	89 ef                	mov    %ebp,%edi
  4025e1:	e8 aa e6 ff ff       	callq  400c90 <close@plt>
  4025e6:	b8 ff ff ff ff       	mov    $0xffffffff,%eax
  4025eb:	e9 5c 01 00 00       	jmpq   40274c <submitr+0x587>
  4025f0:	48 b8 45 72 72 6f 72 	movabs $0x43203a726f727245,%rax
  4025f7:	3a 20 43 
  4025fa:	48 89 03             	mov    %rax,(%rbx)
  4025fd:	48 b8 6c 69 65 6e 74 	movabs $0x6e7520746e65696c,%rax
  402604:	20 75 6e 
  402607:	48 89 43 08          	mov    %rax,0x8(%rbx)
  40260b:	48 b8 61 62 6c 65 20 	movabs $0x206f7420656c6261,%rax
  402612:	74 6f 20 
  402615:	48 89 43 10          	mov    %rax,0x10(%rbx)
  402619:	48 b8 77 72 69 74 65 	movabs $0x6f74206574697277,%rax
  402620:	20 74 6f 
  402623:	48 89 43 18          	mov    %rax,0x18(%rbx)
  402627:	48 b8 20 74 68 65 20 	movabs $0x7365722065687420,%rax
  40262e:	72 65 73 
  402631:	48 89 43 20          	mov    %rax,0x20(%rbx)
  402635:	48 b8 75 6c 74 20 73 	movabs $0x7672657320746c75,%rax
  40263c:	65 72 76 
  40263f:	48 89 43 28          	mov    %rax,0x28(%rbx)
  402643:	66 c7 43 30 65 72    	movw   $0x7265,0x30(%rbx)
  402649:	c6 43 32 00          	movb   $0x0,0x32(%rbx)
  40264d:	89 ef                	mov    %ebp,%edi
  40264f:	e8 3c e6 ff ff       	callq  400c90 <close@plt>
  402654:	b8 ff ff ff ff       	mov    $0xffffffff,%eax
  402659:	e9 ee 00 00 00       	jmpq   40274c <submitr+0x587>
  40265e:	48 b8 45 72 72 6f 72 	movabs $0x43203a726f727245,%rax
  402665:	3a 20 43 
  402668:	48 89 03             	mov    %rax,(%rbx)
  40266b:	48 b8 6c 69 65 6e 74 	movabs $0x6e7520746e65696c,%rax
  402672:	20 75 6e 
  402675:	48 89 43 08          	mov    %rax,0x8(%rbx)
  402679:	48 b8 61 62 6c 65 20 	movabs $0x206f7420656c6261,%rax
  402680:	74 6f 20 
  402683:	48 89 43 10          	mov    %rax,0x10(%rbx)
  402687:	48 b8 72 65 61 64 20 	movabs $0x7269662064616572,%rax
  40268e:	66 69 72 
  402691:	48 89 43 18          	mov    %rax,0x18(%rbx)
  402695:	48 b8 73 74 20 68 65 	movabs $0x6564616568207473,%rax
  40269c:	61 64 65 
  40269f:	48 89 43 20          	mov    %rax,0x20(%rbx)
  4026a3:	48 b8 72 20 66 72 6f 	movabs $0x72206d6f72662072,%rax
  4026aa:	6d 20 72 
  4026ad:	48 89 43 28          	mov    %rax,0x28(%rbx)
  4026b1:	48 b8 65 73 75 6c 74 	movabs $0x657320746c757365,%rax
  4026b8:	20 73 65 
  4026bb:	48 89 43 30          	mov    %rax,0x30(%rbx)
  4026bf:	c7 43 38 72 76 65 72 	movl   $0x72657672,0x38(%rbx)
  4026c6:	c6 43 3c 00          	movb   $0x0,0x3c(%rbx)
  4026ca:	89 ef                	mov    %ebp,%edi
  4026cc:	e8 bf e5 ff ff       	callq  400c90 <close@plt>
  4026d1:	b8 ff ff ff ff       	mov    $0xffffffff,%eax
  4026d6:	eb 74                	jmp    40274c <submitr+0x587>
  4026d8:	48 b8 45 72 72 6f 72 	movabs $0x43203a726f727245,%rax
  4026df:	3a 20 43 
  4026e2:	48 89 03             	mov    %rax,(%rbx)
  4026e5:	48 b8 6c 69 65 6e 74 	movabs $0x6e7520746e65696c,%rax
  4026ec:	20 75 6e 
  4026ef:	48 89 43 08          	mov    %rax,0x8(%rbx)
  4026f3:	48 b8 61 62 6c 65 20 	movabs $0x206f7420656c6261,%rax
  4026fa:	74 6f 20 
  4026fd:	48 89 43 10          	mov    %rax,0x10(%rbx)
  402701:	48 b8 72 65 61 64 20 	movabs $0x6165682064616572,%rax
  402708:	68 65 61 
  40270b:	48 89 43 18          	mov    %rax,0x18(%rbx)
  40270f:	48 b8 64 65 72 73 20 	movabs $0x6f72662073726564,%rax
  402716:	66 72 6f 
  402719:	48 89 43 20          	mov    %rax,0x20(%rbx)
  40271d:	48 b8 6d 20 74 68 65 	movabs $0x657220656874206d,%rax
  402724:	20 72 65 
  402727:	48 89 43 28          	mov    %rax,0x28(%rbx)
  40272b:	48 b8 73 75 6c 74 20 	movabs $0x72657320746c7573,%rax
  402732:	73 65 72 
  402735:	48 89 43 30          	mov    %rax,0x30(%rbx)
  402739:	c7 43 38 76 65 72 00 	movl   $0x726576,0x38(%rbx)
  402740:	89 ef                	mov    %ebp,%edi
  402742:	e8 49 e5 ff ff       	callq  400c90 <close@plt>
  402747:	b8 ff ff ff ff       	mov    $0xffffffff,%eax
  40274c:	48 81 c4 58 a0 00 00 	add    $0xa058,%rsp
  402753:	5b                   	pop    %rbx
  402754:	5d                   	pop    %rbp
  402755:	41 5c                	pop    %r12
  402757:	41 5d                	pop    %r13
  402759:	41 5e                	pop    %r14
  40275b:	41 5f                	pop    %r15
  40275d:	c3                   	retq   
  40275e:	85 c0                	test   %eax,%eax
  402760:	74 51                	je     4027b3 <submitr+0x5ee>
  402762:	48 8d b4 24 30 60 00 	lea    0x6030(%rsp),%rsi
  402769:	00 
  40276a:	48 8d bc 24 30 80 00 	lea    0x8030(%rsp),%rdi
  402771:	00 
  402772:	ba 00 20 00 00       	mov    $0x2000,%edx
  402777:	e8 ca f9 ff ff       	callq  402146 <rio_readlineb>
  40277c:	48 85 c0             	test   %rax,%rax
  40277f:	0f 8e 53 ff ff ff    	jle    4026d8 <submitr+0x513>
  402785:	0f b6 94 24 30 60 00 	movzbl 0x6030(%rsp),%edx
  40278c:	00 
  40278d:	b8 0d 00 00 00       	mov    $0xd,%eax
  402792:	29 d0                	sub    %edx,%eax
  402794:	75 c8                	jne    40275e <submitr+0x599>
  402796:	0f b6 94 24 31 60 00 	movzbl 0x6031(%rsp),%edx
  40279d:	00 
  40279e:	b8 0a 00 00 00       	mov    $0xa,%eax
  4027a3:	29 d0                	sub    %edx,%eax
  4027a5:	75 b7                	jne    40275e <submitr+0x599>
  4027a7:	0f b6 84 24 32 60 00 	movzbl 0x6032(%rsp),%eax
  4027ae:	00 
  4027af:	f7 d8                	neg    %eax
  4027b1:	eb ab                	jmp    40275e <submitr+0x599>
  4027b3:	48 8d b4 24 30 60 00 	lea    0x6030(%rsp),%rsi
  4027ba:	00 
  4027bb:	48 8d bc 24 30 80 00 	lea    0x8030(%rsp),%rdi
  4027c2:	00 
  4027c3:	ba 00 20 00 00       	mov    $0x2000,%edx
  4027c8:	e8 79 f9 ff ff       	callq  402146 <rio_readlineb>
  4027cd:	48 85 c0             	test   %rax,%rax
  4027d0:	7e 67                	jle    402839 <submitr+0x674>
  4027d2:	8b 94 24 2c 20 00 00 	mov    0x202c(%rsp),%edx
  4027d9:	81 fa c8 00 00 00    	cmp    $0xc8,%edx
  4027df:	0f 85 d7 00 00 00    	jne    4028bc <submitr+0x6f7>
  4027e5:	48 8d b4 24 30 60 00 	lea    0x6030(%rsp),%rsi
  4027ec:	00 
  4027ed:	48 89 df             	mov    %rbx,%rdi
  4027f0:	e8 2b e4 ff ff       	callq  400c20 <strcpy@plt>
  4027f5:	89 ef                	mov    %ebp,%edi
  4027f7:	e8 94 e4 ff ff       	callq  400c90 <close@plt>
  4027fc:	0f b6 03             	movzbl (%rbx),%eax
  4027ff:	ba 4f 00 00 00       	mov    $0x4f,%edx
  402804:	29 c2                	sub    %eax,%edx
  402806:	0f 85 da 00 00 00    	jne    4028e6 <submitr+0x721>
  40280c:	0f b6 4b 01          	movzbl 0x1(%rbx),%ecx
  402810:	b8 4b 00 00 00       	mov    $0x4b,%eax
  402815:	29 c8                	sub    %ecx,%eax
  402817:	0f 85 cb 00 00 00    	jne    4028e8 <submitr+0x723>
  40281d:	0f b6 4b 02          	movzbl 0x2(%rbx),%ecx
  402821:	b8 0a 00 00 00       	mov    $0xa,%eax
  402826:	29 c8                	sub    %ecx,%eax
  402828:	0f 85 ba 00 00 00    	jne    4028e8 <submitr+0x723>
  40282e:	0f b6 43 03          	movzbl 0x3(%rbx),%eax
  402832:	f7 d8                	neg    %eax
  402834:	e9 af 00 00 00       	jmpq   4028e8 <submitr+0x723>
  402839:	48 b8 45 72 72 6f 72 	movabs $0x43203a726f727245,%rax
  402840:	3a 20 43 
  402843:	48 89 03             	mov    %rax,(%rbx)
  402846:	48 b8 6c 69 65 6e 74 	movabs $0x6e7520746e65696c,%rax
  40284d:	20 75 6e 
  402850:	48 89 43 08          	mov    %rax,0x8(%rbx)
  402854:	48 b8 61 62 6c 65 20 	movabs $0x206f7420656c6261,%rax
  40285b:	74 6f 20 
  40285e:	48 89 43 10          	mov    %rax,0x10(%rbx)
  402862:	48 b8 72 65 61 64 20 	movabs $0x6174732064616572,%rax
  402869:	73 74 61 
  40286c:	48 89 43 18          	mov    %rax,0x18(%rbx)
  402870:	48 b8 74 75 73 20 6d 	movabs $0x7373656d20737574,%rax
  402877:	65 73 73 
  40287a:	48 89 43 20          	mov    %rax,0x20(%rbx)
  40287e:	48 b8 61 67 65 20 66 	movabs $0x6d6f726620656761,%rax
  402885:	72 6f 6d 
  402888:	48 89 43 28          	mov    %rax,0x28(%rbx)
  40288c:	48 b8 20 72 65 73 75 	movabs $0x20746c7573657220,%rax
  402893:	6c 74 20 
  402896:	48 89 43 30          	mov    %rax,0x30(%rbx)
  40289a:	c7 43 38 73 65 72 76 	movl   $0x76726573,0x38(%rbx)
  4028a1:	66 c7 43 3c 65 72    	movw   $0x7265,0x3c(%rbx)
  4028a7:	c6 43 3e 00          	movb   $0x0,0x3e(%rbx)
  4028ab:	89 ef                	mov    %ebp,%edi
  4028ad:	e8 de e3 ff ff       	callq  400c90 <close@plt>
  4028b2:	b8 ff ff ff ff       	mov    $0xffffffff,%eax
  4028b7:	e9 90 fe ff ff       	jmpq   40274c <submitr+0x587>
  4028bc:	48 8d 4c 24 20       	lea    0x20(%rsp),%rcx
  4028c1:	48 8d 35 f0 0a 00 00 	lea    0xaf0(%rip),%rsi        # 4033b8 <trans_char+0x78>
  4028c8:	48 89 df             	mov    %rbx,%rdi
  4028cb:	b8 00 00 00 00       	mov    $0x0,%eax
  4028d0:	e8 cb e4 ff ff       	callq  400da0 <sprintf@plt>
  4028d5:	89 ef                	mov    %ebp,%edi
  4028d7:	e8 b4 e3 ff ff       	callq  400c90 <close@plt>
  4028dc:	b8 ff ff ff ff       	mov    $0xffffffff,%eax
  4028e1:	e9 66 fe ff ff       	jmpq   40274c <submitr+0x587>
  4028e6:	89 d0                	mov    %edx,%eax
  4028e8:	f7 d8                	neg    %eax
  4028ea:	0f 84 5c fe ff ff    	je     40274c <submitr+0x587>
  4028f0:	b9 05 00 00 00       	mov    $0x5,%ecx
  4028f5:	48 8d 3d 04 0b 00 00 	lea    0xb04(%rip),%rdi        # 403400 <trans_char+0xc0>
  4028fc:	48 89 de             	mov    %rbx,%rsi
  4028ff:	f3 a6                	repz cmpsb %es:(%rdi),%ds:(%rsi)
  402901:	0f 97 c0             	seta   %al
  402904:	0f 92 c1             	setb   %cl
  402907:	29 c8                	sub    %ecx,%eax
  402909:	0f be c0             	movsbl %al,%eax
  40290c:	85 c0                	test   %eax,%eax
  40290e:	0f 84 38 fe ff ff    	je     40274c <submitr+0x587>
  402914:	85 d2                	test   %edx,%edx
  402916:	75 13                	jne    40292b <submitr+0x766>
  402918:	0f b6 43 01          	movzbl 0x1(%rbx),%eax
  40291c:	ba 4b 00 00 00       	mov    $0x4b,%edx
  402921:	29 c2                	sub    %eax,%edx
  402923:	75 06                	jne    40292b <submitr+0x766>
  402925:	0f b6 53 02          	movzbl 0x2(%rbx),%edx
  402929:	f7 da                	neg    %edx
  40292b:	89 d0                	mov    %edx,%eax
  40292d:	f7 d8                	neg    %eax
  40292f:	0f 84 17 fe ff ff    	je     40274c <submitr+0x587>
  402935:	b8 ff ff ff ff       	mov    $0xffffffff,%eax
  40293a:	e9 0d fe ff ff       	jmpq   40274c <submitr+0x587>

000000000040293f <init_timeout>:
  40293f:	85 ff                	test   %edi,%edi
  402941:	74 20                	je     402963 <init_timeout+0x24>
  402943:	53                   	push   %rbx
  402944:	89 fb                	mov    %edi,%ebx
  402946:	85 ff                	test   %edi,%edi
  402948:	78 1b                	js     402965 <init_timeout+0x26>
  40294a:	48 8d 35 05 f6 ff ff 	lea    -0x9fb(%rip),%rsi        # 401f56 <sigalrm_handler>
  402951:	bf 0e 00 00 00       	mov    $0xe,%edi
  402956:	e8 55 e3 ff ff       	callq  400cb0 <signal@plt>
  40295b:	89 df                	mov    %ebx,%edi
  40295d:	e8 1e e3 ff ff       	callq  400c80 <alarm@plt>
  402962:	5b                   	pop    %rbx
  402963:	f3 c3                	repz retq 
  402965:	bb 00 00 00 00       	mov    $0x0,%ebx
  40296a:	eb de                	jmp    40294a <init_timeout+0xb>

000000000040296c <init_driver>:
  40296c:	41 54                	push   %r12
  40296e:	55                   	push   %rbp
  40296f:	53                   	push   %rbx
  402970:	48 83 ec 10          	sub    $0x10,%rsp
  402974:	48 89 fd             	mov    %rdi,%rbp
  402977:	be 01 00 00 00       	mov    $0x1,%esi
  40297c:	bf 0d 00 00 00       	mov    $0xd,%edi
  402981:	e8 2a e3 ff ff       	callq  400cb0 <signal@plt>
  402986:	be 01 00 00 00       	mov    $0x1,%esi
  40298b:	bf 1d 00 00 00       	mov    $0x1d,%edi
  402990:	e8 1b e3 ff ff       	callq  400cb0 <signal@plt>
  402995:	be 01 00 00 00       	mov    $0x1,%esi
  40299a:	bf 1d 00 00 00       	mov    $0x1d,%edi
  40299f:	e8 0c e3 ff ff       	callq  400cb0 <signal@plt>
  4029a4:	ba 00 00 00 00       	mov    $0x0,%edx
  4029a9:	be 01 00 00 00       	mov    $0x1,%esi
  4029ae:	bf 02 00 00 00       	mov    $0x2,%edi
  4029b3:	e8 18 e4 ff ff       	callq  400dd0 <socket@plt>
  4029b8:	85 c0                	test   %eax,%eax
  4029ba:	0f 88 80 00 00 00    	js     402a40 <init_driver+0xd4>
  4029c0:	89 c3                	mov    %eax,%ebx
  4029c2:	48 8d 3d 3c 0a 00 00 	lea    0xa3c(%rip),%rdi        # 403405 <trans_char+0xc5>
  4029c9:	e8 f2 e2 ff ff       	callq  400cc0 <gethostbyname@plt>
  4029ce:	48 85 c0             	test   %rax,%rax
  4029d1:	0f 84 b5 00 00 00    	je     402a8c <init_driver+0x120>
  4029d7:	48 c7 04 24 00 00 00 	movq   $0x0,(%rsp)
  4029de:	00 
  4029df:	48 c7 44 24 08 00 00 	movq   $0x0,0x8(%rsp)
  4029e6:	00 00 
  4029e8:	66 c7 04 24 02 00    	movw   $0x2,(%rsp)
  4029ee:	48 8b 48 18          	mov    0x18(%rax),%rcx
  4029f2:	48 63 50 14          	movslq 0x14(%rax),%rdx
  4029f6:	48 8d 74 24 04       	lea    0x4(%rsp),%rsi
  4029fb:	48 8b 39             	mov    (%rcx),%rdi
  4029fe:	e8 4d e3 ff ff       	callq  400d50 <bcopy@plt>
  402a03:	66 c7 44 24 02 3c a4 	movw   $0xa43c,0x2(%rsp)
  402a0a:	ba 10 00 00 00       	mov    $0x10,%edx
  402a0f:	48 89 e6             	mov    %rsp,%rsi
  402a12:	89 df                	mov    %ebx,%edi
  402a14:	e8 a7 e3 ff ff       	callq  400dc0 <connect@plt>
  402a19:	85 c0                	test   %eax,%eax
  402a1b:	0f 88 d3 00 00 00    	js     402af4 <init_driver+0x188>
  402a21:	89 df                	mov    %ebx,%edi
  402a23:	e8 68 e2 ff ff       	callq  400c90 <close@plt>
  402a28:	66 c7 45 00 4f 4b    	movw   $0x4b4f,0x0(%rbp)
  402a2e:	c6 45 02 00          	movb   $0x0,0x2(%rbp)
  402a32:	b8 00 00 00 00       	mov    $0x0,%eax
  402a37:	48 83 c4 10          	add    $0x10,%rsp
  402a3b:	5b                   	pop    %rbx
  402a3c:	5d                   	pop    %rbp
  402a3d:	41 5c                	pop    %r12
  402a3f:	c3                   	retq   
  402a40:	48 b8 45 72 72 6f 72 	movabs $0x43203a726f727245,%rax
  402a47:	3a 20 43 
  402a4a:	48 89 45 00          	mov    %rax,0x0(%rbp)
  402a4e:	48 b8 6c 69 65 6e 74 	movabs $0x6e7520746e65696c,%rax
  402a55:	20 75 6e 
  402a58:	48 89 45 08          	mov    %rax,0x8(%rbp)
  402a5c:	48 b8 61 62 6c 65 20 	movabs $0x206f7420656c6261,%rax
  402a63:	74 6f 20 
  402a66:	48 89 45 10          	mov    %rax,0x10(%rbp)
  402a6a:	48 b8 63 72 65 61 74 	movabs $0x7320657461657263,%rax
  402a71:	65 20 73 
  402a74:	48 89 45 18          	mov    %rax,0x18(%rbp)
  402a78:	c7 45 20 6f 63 6b 65 	movl   $0x656b636f,0x20(%rbp)
  402a7f:	66 c7 45 24 74 00    	movw   $0x74,0x24(%rbp)
  402a85:	b8 ff ff ff ff       	mov    $0xffffffff,%eax
  402a8a:	eb ab                	jmp    402a37 <init_driver+0xcb>
  402a8c:	48 b8 45 72 72 6f 72 	movabs $0x44203a726f727245,%rax
  402a93:	3a 20 44 
  402a96:	48 89 45 00          	mov    %rax,0x0(%rbp)
  402a9a:	48 b8 4e 53 20 69 73 	movabs $0x6e7520736920534e,%rax
  402aa1:	20 75 6e 
  402aa4:	48 89 45 08          	mov    %rax,0x8(%rbp)
  402aa8:	48 b8 61 62 6c 65 20 	movabs $0x206f7420656c6261,%rax
  402aaf:	74 6f 20 
  402ab2:	48 89 45 10          	mov    %rax,0x10(%rbp)
  402ab6:	48 b8 72 65 73 6f 6c 	movabs $0x2065766c6f736572,%rax
  402abd:	76 65 20 
  402ac0:	48 89 45 18          	mov    %rax,0x18(%rbp)
  402ac4:	48 b8 73 65 72 76 65 	movabs $0x6120726576726573,%rax
  402acb:	72 20 61 
  402ace:	48 89 45 20          	mov    %rax,0x20(%rbp)
  402ad2:	c7 45 28 64 64 72 65 	movl   $0x65726464,0x28(%rbp)
  402ad9:	66 c7 45 2c 73 73    	movw   $0x7373,0x2c(%rbp)
  402adf:	c6 45 2e 00          	movb   $0x0,0x2e(%rbp)
  402ae3:	89 df                	mov    %ebx,%edi
  402ae5:	e8 a6 e1 ff ff       	callq  400c90 <close@plt>
  402aea:	b8 ff ff ff ff       	mov    $0xffffffff,%eax
  402aef:	e9 43 ff ff ff       	jmpq   402a37 <init_driver+0xcb>
  402af4:	48 b8 45 72 72 6f 72 	movabs $0x55203a726f727245,%rax
  402afb:	3a 20 55 
  402afe:	48 89 45 00          	mov    %rax,0x0(%rbp)
  402b02:	48 b8 6e 61 62 6c 65 	movabs $0x6f7420656c62616e,%rax
  402b09:	20 74 6f 
  402b0c:	48 89 45 08          	mov    %rax,0x8(%rbp)
  402b10:	48 b8 20 63 6f 6e 6e 	movabs $0x7463656e6e6f6320,%rax
  402b17:	65 63 74 
  402b1a:	48 89 45 10          	mov    %rax,0x10(%rbp)
  402b1e:	48 b8 20 74 6f 20 73 	movabs $0x76726573206f7420,%rax
  402b25:	65 72 76 
  402b28:	48 89 45 18          	mov    %rax,0x18(%rbp)
  402b2c:	66 c7 45 20 65 72    	movw   $0x7265,0x20(%rbp)
  402b32:	c6 45 22 00          	movb   $0x0,0x22(%rbp)
  402b36:	89 df                	mov    %ebx,%edi
  402b38:	e8 53 e1 ff ff       	callq  400c90 <close@plt>
  402b3d:	b8 ff ff ff ff       	mov    $0xffffffff,%eax
  402b42:	e9 f0 fe ff ff       	jmpq   402a37 <init_driver+0xcb>

0000000000402b47 <driver_post>:
  402b47:	53                   	push   %rbx
  402b48:	4c 89 cb             	mov    %r9,%rbx
  402b4b:	45 85 c0             	test   %r8d,%r8d
  402b4e:	75 18                	jne    402b68 <driver_post+0x21>
  402b50:	48 85 ff             	test   %rdi,%rdi
  402b53:	74 05                	je     402b5a <driver_post+0x13>
  402b55:	80 3f 00             	cmpb   $0x0,(%rdi)
  402b58:	75 32                	jne    402b8c <driver_post+0x45>
  402b5a:	66 c7 03 4f 4b       	movw   $0x4b4f,(%rbx)
  402b5f:	c6 43 02 00          	movb   $0x0,0x2(%rbx)
  402b63:	44 89 c0             	mov    %r8d,%eax
  402b66:	5b                   	pop    %rbx
  402b67:	c3                   	retq   
  402b68:	48 89 ce             	mov    %rcx,%rsi
  402b6b:	48 8d 3d a1 08 00 00 	lea    0x8a1(%rip),%rdi        # 403413 <trans_char+0xd3>
  402b72:	b8 00 00 00 00       	mov    $0x0,%eax
  402b77:	e8 e4 e0 ff ff       	callq  400c60 <printf@plt>
  402b7c:	66 c7 03 4f 4b       	movw   $0x4b4f,(%rbx)
  402b81:	c6 43 02 00          	movb   $0x0,0x2(%rbx)
  402b85:	b8 00 00 00 00       	mov    $0x0,%eax
  402b8a:	eb da                	jmp    402b66 <driver_post+0x1f>
  402b8c:	48 83 ec 08          	sub    $0x8,%rsp
  402b90:	41 51                	push   %r9
  402b92:	49 89 c9             	mov    %rcx,%r9
  402b95:	49 89 d0             	mov    %rdx,%r8
  402b98:	48 89 f9             	mov    %rdi,%rcx
  402b9b:	48 89 f2             	mov    %rsi,%rdx
  402b9e:	be a4 3c 00 00       	mov    $0x3ca4,%esi
  402ba3:	48 8d 3d 5b 08 00 00 	lea    0x85b(%rip),%rdi        # 403405 <trans_char+0xc5>
  402baa:	e8 16 f6 ff ff       	callq  4021c5 <submitr>
  402baf:	48 83 c4 10          	add    $0x10,%rsp
  402bb3:	eb b1                	jmp    402b66 <driver_post+0x1f>

0000000000402bb5 <check>:
  402bb5:	89 f8                	mov    %edi,%eax
  402bb7:	c1 e8 1c             	shr    $0x1c,%eax
  402bba:	85 c0                	test   %eax,%eax
  402bbc:	74 1d                	je     402bdb <check+0x26>
  402bbe:	b9 00 00 00 00       	mov    $0x0,%ecx
  402bc3:	83 f9 1f             	cmp    $0x1f,%ecx
  402bc6:	7f 0d                	jg     402bd5 <check+0x20>
  402bc8:	89 f8                	mov    %edi,%eax
  402bca:	d3 e8                	shr    %cl,%eax
  402bcc:	3c 0a                	cmp    $0xa,%al
  402bce:	74 11                	je     402be1 <check+0x2c>
  402bd0:	83 c1 08             	add    $0x8,%ecx
  402bd3:	eb ee                	jmp    402bc3 <check+0xe>
  402bd5:	b8 01 00 00 00       	mov    $0x1,%eax
  402bda:	c3                   	retq   
  402bdb:	b8 00 00 00 00       	mov    $0x0,%eax
  402be0:	c3                   	retq   
  402be1:	b8 00 00 00 00       	mov    $0x0,%eax
  402be6:	c3                   	retq   

0000000000402be7 <gencookie>:
  402be7:	53                   	push   %rbx
  402be8:	83 c7 01             	add    $0x1,%edi
  402beb:	e8 10 e0 ff ff       	callq  400c00 <srandom@plt>
  402bf0:	e8 1b e1 ff ff       	callq  400d10 <random@plt>
  402bf5:	89 c3                	mov    %eax,%ebx
  402bf7:	89 c7                	mov    %eax,%edi
  402bf9:	e8 b7 ff ff ff       	callq  402bb5 <check>
  402bfe:	85 c0                	test   %eax,%eax
  402c00:	74 ee                	je     402bf0 <gencookie+0x9>
  402c02:	89 d8                	mov    %ebx,%eax
  402c04:	5b                   	pop    %rbx
  402c05:	c3                   	retq   
  402c06:	66 2e 0f 1f 84 00 00 	nopw   %cs:0x0(%rax,%rax,1)
  402c0d:	00 00 00 

0000000000402c10 <__libc_csu_init>:
  402c10:	41 57                	push   %r15
  402c12:	41 56                	push   %r14
  402c14:	41 89 ff             	mov    %edi,%r15d
  402c17:	41 55                	push   %r13
  402c19:	41 54                	push   %r12
  402c1b:	4c 8d 25 e6 11 20 00 	lea    0x2011e6(%rip),%r12        # 603e08 <__frame_dummy_init_array_entry>
  402c22:	55                   	push   %rbp
  402c23:	48 8d 2d e6 11 20 00 	lea    0x2011e6(%rip),%rbp        # 603e10 <__init_array_end>
  402c2a:	53                   	push   %rbx
  402c2b:	49 89 f6             	mov    %rsi,%r14
  402c2e:	49 89 d5             	mov    %rdx,%r13
  402c31:	4c 29 e5             	sub    %r12,%rbp
  402c34:	48 83 ec 08          	sub    $0x8,%rsp
  402c38:	48 c1 fd 03          	sar    $0x3,%rbp
  402c3c:	e8 6f df ff ff       	callq  400bb0 <_init>
  402c41:	48 85 ed             	test   %rbp,%rbp
  402c44:	74 20                	je     402c66 <__libc_csu_init+0x56>
  402c46:	31 db                	xor    %ebx,%ebx
  402c48:	0f 1f 84 00 00 00 00 	nopl   0x0(%rax,%rax,1)
  402c4f:	00 
  402c50:	4c 89 ea             	mov    %r13,%rdx
  402c53:	4c 89 f6             	mov    %r14,%rsi
  402c56:	44 89 ff             	mov    %r15d,%edi
  402c59:	41 ff 14 dc          	callq  *(%r12,%rbx,8)
  402c5d:	48 83 c3 01          	add    $0x1,%rbx
  402c61:	48 39 dd             	cmp    %rbx,%rbp
  402c64:	75 ea                	jne    402c50 <__libc_csu_init+0x40>
  402c66:	48 83 c4 08          	add    $0x8,%rsp
  402c6a:	5b                   	pop    %rbx
  402c6b:	5d                   	pop    %rbp
  402c6c:	41 5c                	pop    %r12
  402c6e:	41 5d                	pop    %r13
  402c70:	41 5e                	pop    %r14
  402c72:	41 5f                	pop    %r15
  402c74:	c3                   	retq   
  402c75:	90                   	nop
  402c76:	66 2e 0f 1f 84 00 00 	nopw   %cs:0x0(%rax,%rax,1)
  402c7d:	00 00 00 

0000000000402c80 <__libc_csu_fini>:
  402c80:	f3 c3                	repz retq 

Disassembly of section .fini:

0000000000402c84 <_fini>:
  402c84:	48 83 ec 08          	sub    $0x8,%rsp
  402c88:	48 83 c4 08          	add    $0x8,%rsp
  402c8c:	c3                   	retq   
